
test.out:     file format elf64-x86-64


Disassembly of section .init:

0000000000002000 <_init>:
    2000:	f3 0f 1e fa          	endbr64 
    2004:	48 83 ec 08          	sub    $0x8,%rsp
    2008:	48 8b 05 d9 3f 00 00 	mov    0x3fd9(%rip),%rax        # 5fe8 <__gmon_start__@Base>
    200f:	48 85 c0             	test   %rax,%rax
    2012:	74 02                	je     2016 <_init+0x16>
    2014:	ff d0                	call   *%rax
    2016:	48 83 c4 08          	add    $0x8,%rsp
    201a:	c3                   	ret    

Disassembly of section .plt:

0000000000002020 <.plt>:
    2020:	ff 35 ba 3e 00 00    	push   0x3eba(%rip)        # 5ee0 <_GLOBAL_OFFSET_TABLE_+0x8>
    2026:	f2 ff 25 bb 3e 00 00 	bnd jmp *0x3ebb(%rip)        # 5ee8 <_GLOBAL_OFFSET_TABLE_+0x10>
    202d:	0f 1f 00             	nopl   (%rax)
    2030:	f3 0f 1e fa          	endbr64 
    2034:	68 00 00 00 00       	push   $0x0
    2039:	f2 e9 e1 ff ff ff    	bnd jmp 2020 <_init+0x20>
    203f:	90                   	nop
    2040:	f3 0f 1e fa          	endbr64 
    2044:	68 01 00 00 00       	push   $0x1
    2049:	f2 e9 d1 ff ff ff    	bnd jmp 2020 <_init+0x20>
    204f:	90                   	nop
    2050:	f3 0f 1e fa          	endbr64 
    2054:	68 02 00 00 00       	push   $0x2
    2059:	f2 e9 c1 ff ff ff    	bnd jmp 2020 <_init+0x20>
    205f:	90                   	nop
    2060:	f3 0f 1e fa          	endbr64 
    2064:	68 03 00 00 00       	push   $0x3
    2069:	f2 e9 b1 ff ff ff    	bnd jmp 2020 <_init+0x20>
    206f:	90                   	nop
    2070:	f3 0f 1e fa          	endbr64 
    2074:	68 04 00 00 00       	push   $0x4
    2079:	f2 e9 a1 ff ff ff    	bnd jmp 2020 <_init+0x20>
    207f:	90                   	nop
    2080:	f3 0f 1e fa          	endbr64 
    2084:	68 05 00 00 00       	push   $0x5
    2089:	f2 e9 91 ff ff ff    	bnd jmp 2020 <_init+0x20>
    208f:	90                   	nop
    2090:	f3 0f 1e fa          	endbr64 
    2094:	68 06 00 00 00       	push   $0x6
    2099:	f2 e9 81 ff ff ff    	bnd jmp 2020 <_init+0x20>
    209f:	90                   	nop
    20a0:	f3 0f 1e fa          	endbr64 
    20a4:	68 07 00 00 00       	push   $0x7
    20a9:	f2 e9 71 ff ff ff    	bnd jmp 2020 <_init+0x20>
    20af:	90                   	nop
    20b0:	f3 0f 1e fa          	endbr64 
    20b4:	68 08 00 00 00       	push   $0x8
    20b9:	f2 e9 61 ff ff ff    	bnd jmp 2020 <_init+0x20>
    20bf:	90                   	nop
    20c0:	f3 0f 1e fa          	endbr64 
    20c4:	68 09 00 00 00       	push   $0x9
    20c9:	f2 e9 51 ff ff ff    	bnd jmp 2020 <_init+0x20>
    20cf:	90                   	nop
    20d0:	f3 0f 1e fa          	endbr64 
    20d4:	68 0a 00 00 00       	push   $0xa
    20d9:	f2 e9 41 ff ff ff    	bnd jmp 2020 <_init+0x20>
    20df:	90                   	nop
    20e0:	f3 0f 1e fa          	endbr64 
    20e4:	68 0b 00 00 00       	push   $0xb
    20e9:	f2 e9 31 ff ff ff    	bnd jmp 2020 <_init+0x20>
    20ef:	90                   	nop
    20f0:	f3 0f 1e fa          	endbr64 
    20f4:	68 0c 00 00 00       	push   $0xc
    20f9:	f2 e9 21 ff ff ff    	bnd jmp 2020 <_init+0x20>
    20ff:	90                   	nop
    2100:	f3 0f 1e fa          	endbr64 
    2104:	68 0d 00 00 00       	push   $0xd
    2109:	f2 e9 11 ff ff ff    	bnd jmp 2020 <_init+0x20>
    210f:	90                   	nop
    2110:	f3 0f 1e fa          	endbr64 
    2114:	68 0e 00 00 00       	push   $0xe
    2119:	f2 e9 01 ff ff ff    	bnd jmp 2020 <_init+0x20>
    211f:	90                   	nop
    2120:	f3 0f 1e fa          	endbr64 
    2124:	68 0f 00 00 00       	push   $0xf
    2129:	f2 e9 f1 fe ff ff    	bnd jmp 2020 <_init+0x20>
    212f:	90                   	nop
    2130:	f3 0f 1e fa          	endbr64 
    2134:	68 10 00 00 00       	push   $0x10
    2139:	f2 e9 e1 fe ff ff    	bnd jmp 2020 <_init+0x20>
    213f:	90                   	nop
    2140:	f3 0f 1e fa          	endbr64 
    2144:	68 11 00 00 00       	push   $0x11
    2149:	f2 e9 d1 fe ff ff    	bnd jmp 2020 <_init+0x20>
    214f:	90                   	nop
    2150:	f3 0f 1e fa          	endbr64 
    2154:	68 12 00 00 00       	push   $0x12
    2159:	f2 e9 c1 fe ff ff    	bnd jmp 2020 <_init+0x20>
    215f:	90                   	nop
    2160:	f3 0f 1e fa          	endbr64 
    2164:	68 13 00 00 00       	push   $0x13
    2169:	f2 e9 b1 fe ff ff    	bnd jmp 2020 <_init+0x20>
    216f:	90                   	nop
    2170:	f3 0f 1e fa          	endbr64 
    2174:	68 14 00 00 00       	push   $0x14
    2179:	f2 e9 a1 fe ff ff    	bnd jmp 2020 <_init+0x20>
    217f:	90                   	nop
    2180:	f3 0f 1e fa          	endbr64 
    2184:	68 15 00 00 00       	push   $0x15
    2189:	f2 e9 91 fe ff ff    	bnd jmp 2020 <_init+0x20>
    218f:	90                   	nop
    2190:	f3 0f 1e fa          	endbr64 
    2194:	68 16 00 00 00       	push   $0x16
    2199:	f2 e9 81 fe ff ff    	bnd jmp 2020 <_init+0x20>
    219f:	90                   	nop
    21a0:	f3 0f 1e fa          	endbr64 
    21a4:	68 17 00 00 00       	push   $0x17
    21a9:	f2 e9 71 fe ff ff    	bnd jmp 2020 <_init+0x20>
    21af:	90                   	nop
    21b0:	f3 0f 1e fa          	endbr64 
    21b4:	68 18 00 00 00       	push   $0x18
    21b9:	f2 e9 61 fe ff ff    	bnd jmp 2020 <_init+0x20>
    21bf:	90                   	nop
    21c0:	f3 0f 1e fa          	endbr64 
    21c4:	68 19 00 00 00       	push   $0x19
    21c9:	f2 e9 51 fe ff ff    	bnd jmp 2020 <_init+0x20>
    21cf:	90                   	nop
    21d0:	f3 0f 1e fa          	endbr64 
    21d4:	68 1a 00 00 00       	push   $0x1a
    21d9:	f2 e9 41 fe ff ff    	bnd jmp 2020 <_init+0x20>
    21df:	90                   	nop

Disassembly of section .plt.got:

00000000000021e0 <__cxa_finalize@plt>:
    21e0:	f3 0f 1e fa          	endbr64 
    21e4:	f2 ff 25 dd 3d 00 00 	bnd jmp *0x3ddd(%rip)        # 5fc8 <__cxa_finalize@GLIBC_2.2.5>
    21eb:	0f 1f 44 00 00       	nopl   0x0(%rax,%rax,1)

Disassembly of section .plt.sec:

00000000000021f0 <_ZNSt7__cxx1112basic_stringIcSt11char_traitsIcESaIcEEaSERKS4_@plt>:
    21f0:	f3 0f 1e fa          	endbr64 
    21f4:	f2 ff 25 f5 3c 00 00 	bnd jmp *0x3cf5(%rip)        # 5ef0 <_ZNSt7__cxx1112basic_stringIcSt11char_traitsIcESaIcEEaSERKS4_@GLIBCXX_3.4.21>
    21fb:	0f 1f 44 00 00       	nopl   0x0(%rax,%rax,1)

0000000000002200 <_ZSt7getlineIcSt11char_traitsIcESaIcEERSt13basic_istreamIT_T0_ES7_RNSt7__cxx1112basic_stringIS4_S5_T1_EE@plt>:
    2200:	f3 0f 1e fa          	endbr64 
    2204:	f2 ff 25 ed 3c 00 00 	bnd jmp *0x3ced(%rip)        # 5ef8 <_ZSt7getlineIcSt11char_traitsIcESaIcEERSt13basic_istreamIT_T0_ES7_RNSt7__cxx1112basic_stringIS4_S5_T1_EE@GLIBCXX_3.4.21>
    220b:	0f 1f 44 00 00       	nopl   0x0(%rax,%rax,1)

0000000000002210 <_ZSt17__throw_bad_allocv@plt>:
    2210:	f3 0f 1e fa          	endbr64 
    2214:	f2 ff 25 e5 3c 00 00 	bnd jmp *0x3ce5(%rip)        # 5f00 <_ZSt17__throw_bad_allocv@GLIBCXX_3.4>
    221b:	0f 1f 44 00 00       	nopl   0x0(%rax,%rax,1)

0000000000002220 <__cxa_begin_catch@plt>:
    2220:	f3 0f 1e fa          	endbr64 
    2224:	f2 ff 25 dd 3c 00 00 	bnd jmp *0x3cdd(%rip)        # 5f08 <__cxa_begin_catch@CXXABI_1.3>
    222b:	0f 1f 44 00 00       	nopl   0x0(%rax,%rax,1)

0000000000002230 <_ZNSt7__cxx1112basic_stringIcSt11char_traitsIcESaIcEEC1ERKS4_@plt>:
    2230:	f3 0f 1e fa          	endbr64 
    2234:	f2 ff 25 d5 3c 00 00 	bnd jmp *0x3cd5(%rip)        # 5f10 <_ZNSt7__cxx1112basic_stringIcSt11char_traitsIcESaIcEEC1ERKS4_@GLIBCXX_3.4.21>
    223b:	0f 1f 44 00 00       	nopl   0x0(%rax,%rax,1)

0000000000002240 <_ZSt20__throw_length_errorPKc@plt>:
    2240:	f3 0f 1e fa          	endbr64 
    2244:	f2 ff 25 cd 3c 00 00 	bnd jmp *0x3ccd(%rip)        # 5f18 <_ZSt20__throw_length_errorPKc@GLIBCXX_3.4>
    224b:	0f 1f 44 00 00       	nopl   0x0(%rax,%rax,1)

0000000000002250 <_ZNSt7__cxx1112basic_stringIcSt11char_traitsIcESaIcEEC1EOS4_@plt>:
    2250:	f3 0f 1e fa          	endbr64 
    2254:	f2 ff 25 c5 3c 00 00 	bnd jmp *0x3cc5(%rip)        # 5f20 <_ZNSt7__cxx1112basic_stringIcSt11char_traitsIcESaIcEEC1EOS4_@GLIBCXX_3.4.21>
    225b:	0f 1f 44 00 00       	nopl   0x0(%rax,%rax,1)

0000000000002260 <_ZNSt7__cxx1112basic_stringIcSt11char_traitsIcESaIcEED1Ev@plt>:
    2260:	f3 0f 1e fa          	endbr64 
    2264:	f2 ff 25 bd 3c 00 00 	bnd jmp *0x3cbd(%rip)        # 5f28 <_ZNSt7__cxx1112basic_stringIcSt11char_traitsIcESaIcEED1Ev@GLIBCXX_3.4.21>
    226b:	0f 1f 44 00 00       	nopl   0x0(%rax,%rax,1)

0000000000002270 <_ZNSt7__cxx1118basic_stringstreamIcSt11char_traitsIcESaIcEED1Ev@plt>:
    2270:	f3 0f 1e fa          	endbr64 
    2274:	f2 ff 25 b5 3c 00 00 	bnd jmp *0x3cb5(%rip)        # 5f30 <_ZNSt7__cxx1118basic_stringstreamIcSt11char_traitsIcESaIcEED1Ev@GLIBCXX_3.4.21>
    227b:	0f 1f 44 00 00       	nopl   0x0(%rax,%rax,1)

0000000000002280 <_ZSt28__throw_bad_array_new_lengthv@plt>:
    2280:	f3 0f 1e fa          	endbr64 
    2284:	f2 ff 25 ad 3c 00 00 	bnd jmp *0x3cad(%rip)        # 5f38 <_ZSt28__throw_bad_array_new_lengthv@GLIBCXX_3.4.29>
    228b:	0f 1f 44 00 00       	nopl   0x0(%rax,%rax,1)

0000000000002290 <__cxa_atexit@plt>:
    2290:	f3 0f 1e fa          	endbr64 
    2294:	f2 ff 25 a5 3c 00 00 	bnd jmp *0x3ca5(%rip)        # 5f40 <__cxa_atexit@GLIBC_2.2.5>
    229b:	0f 1f 44 00 00       	nopl   0x0(%rax,%rax,1)

00000000000022a0 <_ZStlsIcSt11char_traitsIcESaIcEERSt13basic_ostreamIT_T0_ES7_RKNSt7__cxx1112basic_stringIS4_S5_T1_EE@plt>:
    22a0:	f3 0f 1e fa          	endbr64 
    22a4:	f2 ff 25 9d 3c 00 00 	bnd jmp *0x3c9d(%rip)        # 5f48 <_ZStlsIcSt11char_traitsIcESaIcEERSt13basic_ostreamIT_T0_ES7_RKNSt7__cxx1112basic_stringIS4_S5_T1_EE@GLIBCXX_3.4.21>
    22ab:	0f 1f 44 00 00       	nopl   0x0(%rax,%rax,1)

00000000000022b0 <_Znwm@plt>:
    22b0:	f3 0f 1e fa          	endbr64 
    22b4:	f2 ff 25 95 3c 00 00 	bnd jmp *0x3c95(%rip)        # 5f50 <_Znwm@GLIBCXX_3.4>
    22bb:	0f 1f 44 00 00       	nopl   0x0(%rax,%rax,1)

00000000000022c0 <_ZdlPvm@plt>:
    22c0:	f3 0f 1e fa          	endbr64 
    22c4:	f2 ff 25 8d 3c 00 00 	bnd jmp *0x3c8d(%rip)        # 5f58 <_ZdlPvm@CXXABI_1.3.9>
    22cb:	0f 1f 44 00 00       	nopl   0x0(%rax,%rax,1)

00000000000022d0 <_ZNSolsEPFRSoS_E@plt>:
    22d0:	f3 0f 1e fa          	endbr64 
    22d4:	f2 ff 25 85 3c 00 00 	bnd jmp *0x3c85(%rip)        # 5f60 <_ZNSolsEPFRSoS_E@GLIBCXX_3.4>
    22db:	0f 1f 44 00 00       	nopl   0x0(%rax,%rax,1)

00000000000022e0 <__stack_chk_fail@plt>:
    22e0:	f3 0f 1e fa          	endbr64 
    22e4:	f2 ff 25 7d 3c 00 00 	bnd jmp *0x3c7d(%rip)        # 5f68 <__stack_chk_fail@GLIBC_2.4>
    22eb:	0f 1f 44 00 00       	nopl   0x0(%rax,%rax,1)

00000000000022f0 <_ZNSt7__cxx1112basic_stringIcSt11char_traitsIcESaIcEEaSEOS4_@plt>:
    22f0:	f3 0f 1e fa          	endbr64 
    22f4:	f2 ff 25 75 3c 00 00 	bnd jmp *0x3c75(%rip)        # 5f70 <_ZNSt7__cxx1112basic_stringIcSt11char_traitsIcESaIcEEaSEOS4_@GLIBCXX_3.4.21>
    22fb:	0f 1f 44 00 00       	nopl   0x0(%rax,%rax,1)

0000000000002300 <_ZNKSt9basic_iosIcSt11char_traitsIcEEcvbEv@plt>:
    2300:	f3 0f 1e fa          	endbr64 
    2304:	f2 ff 25 6d 3c 00 00 	bnd jmp *0x3c6d(%rip)        # 5f78 <_ZNKSt9basic_iosIcSt11char_traitsIcEEcvbEv@GLIBCXX_3.4.21>
    230b:	0f 1f 44 00 00       	nopl   0x0(%rax,%rax,1)

0000000000002310 <_ZNSt7__cxx1112basic_stringIcSt11char_traitsIcESaIcEEC1Ev@plt>:
    2310:	f3 0f 1e fa          	endbr64 
    2314:	f2 ff 25 65 3c 00 00 	bnd jmp *0x3c65(%rip)        # 5f80 <_ZNSt7__cxx1112basic_stringIcSt11char_traitsIcESaIcEEC1Ev@GLIBCXX_3.4.21>
    231b:	0f 1f 44 00 00       	nopl   0x0(%rax,%rax,1)

0000000000002320 <__cxa_rethrow@plt>:
    2320:	f3 0f 1e fa          	endbr64 
    2324:	f2 ff 25 5d 3c 00 00 	bnd jmp *0x3c5d(%rip)        # 5f88 <__cxa_rethrow@CXXABI_1.3>
    232b:	0f 1f 44 00 00       	nopl   0x0(%rax,%rax,1)

0000000000002330 <_ZNSt8ios_base4InitC1Ev@plt>:
    2330:	f3 0f 1e fa          	endbr64 
    2334:	f2 ff 25 55 3c 00 00 	bnd jmp *0x3c55(%rip)        # 5f90 <_ZNSt8ios_base4InitC1Ev@GLIBCXX_3.4>
    233b:	0f 1f 44 00 00       	nopl   0x0(%rax,%rax,1)

0000000000002340 <_ZNSt7__cxx1118basic_stringstreamIcSt11char_traitsIcESaIcEEC1ERKNS_12basic_stringIcS2_S3_EESt13_Ios_Openmode@plt>:
    2340:	f3 0f 1e fa          	endbr64 
    2344:	f2 ff 25 4d 3c 00 00 	bnd jmp *0x3c4d(%rip)        # 5f98 <_ZNSt7__cxx1118basic_stringstreamIcSt11char_traitsIcESaIcEEC1ERKNS_12basic_stringIcS2_S3_EESt13_Ios_Openmode@GLIBCXX_3.4.21>
    234b:	0f 1f 44 00 00       	nopl   0x0(%rax,%rax,1)

0000000000002350 <__cxa_end_catch@plt>:
    2350:	f3 0f 1e fa          	endbr64 
    2354:	f2 ff 25 45 3c 00 00 	bnd jmp *0x3c45(%rip)        # 5fa0 <__cxa_end_catch@CXXABI_1.3>
    235b:	0f 1f 44 00 00       	nopl   0x0(%rax,%rax,1)

0000000000002360 <_Unwind_Resume@plt>:
    2360:	f3 0f 1e fa          	endbr64 
    2364:	f2 ff 25 3d 3c 00 00 	bnd jmp *0x3c3d(%rip)        # 5fa8 <_Unwind_Resume@GCC_3.0>
    236b:	0f 1f 44 00 00       	nopl   0x0(%rax,%rax,1)

0000000000002370 <_ZSt7getlineIcSt11char_traitsIcESaIcEERSt13basic_istreamIT_T0_ES7_RNSt7__cxx1112basic_stringIS4_S5_T1_EES4_@plt>:
    2370:	f3 0f 1e fa          	endbr64 
    2374:	f2 ff 25 35 3c 00 00 	bnd jmp *0x3c35(%rip)        # 5fb0 <_ZSt7getlineIcSt11char_traitsIcESaIcEERSt13basic_istreamIT_T0_ES7_RNSt7__cxx1112basic_stringIS4_S5_T1_EES4_@GLIBCXX_3.4.21>
    237b:	0f 1f 44 00 00       	nopl   0x0(%rax,%rax,1)

0000000000002380 <_ZNSt7__cxx1112basic_stringIcSt11char_traitsIcESaIcEE6appendEPKc@plt>:
    2380:	f3 0f 1e fa          	endbr64 
    2384:	f2 ff 25 2d 3c 00 00 	bnd jmp *0x3c2d(%rip)        # 5fb8 <_ZNSt7__cxx1112basic_stringIcSt11char_traitsIcESaIcEE6appendEPKc@GLIBCXX_3.4.21>
    238b:	0f 1f 44 00 00       	nopl   0x0(%rax,%rax,1)

0000000000002390 <_ZNSt7__cxx1112basic_stringIcSt11char_traitsIcESaIcEE6appendERKS4_@plt>:
    2390:	f3 0f 1e fa          	endbr64 
    2394:	f2 ff 25 25 3c 00 00 	bnd jmp *0x3c25(%rip)        # 5fc0 <_ZNSt7__cxx1112basic_stringIcSt11char_traitsIcESaIcEE6appendERKS4_@GLIBCXX_3.4.21>
    239b:	0f 1f 44 00 00       	nopl   0x0(%rax,%rax,1)

Disassembly of section .text:

00000000000023a0 <_start>:
    23a0:	f3 0f 1e fa          	endbr64 
    23a4:	31 ed                	xor    %ebp,%ebp
    23a6:	49 89 d1             	mov    %rdx,%r9
    23a9:	5e                   	pop    %rsi
    23aa:	48 89 e2             	mov    %rsp,%rdx
    23ad:	48 83 e4 f0          	and    $0xfffffffffffffff0,%rsp
    23b1:	50                   	push   %rax
    23b2:	54                   	push   %rsp
    23b3:	45 31 c0             	xor    %r8d,%r8d
    23b6:	31 c9                	xor    %ecx,%ecx
    23b8:	48 8d 3d ca 00 00 00 	lea    0xca(%rip),%rdi        # 2489 <main>
    23bf:	ff 15 13 3c 00 00    	call   *0x3c13(%rip)        # 5fd8 <__libc_start_main@GLIBC_2.34>
    23c5:	f4                   	hlt    
    23c6:	66 2e 0f 1f 84 00 00 	cs nopw 0x0(%rax,%rax,1)
    23cd:	00 00 00 

00000000000023d0 <deregister_tm_clones>:
    23d0:	48 8d 3d 41 3c 00 00 	lea    0x3c41(%rip),%rdi        # 6018 <__TMC_END__>
    23d7:	48 8d 05 3a 3c 00 00 	lea    0x3c3a(%rip),%rax        # 6018 <__TMC_END__>
    23de:	48 39 f8             	cmp    %rdi,%rax
    23e1:	74 15                	je     23f8 <deregister_tm_clones+0x28>
    23e3:	48 8b 05 f6 3b 00 00 	mov    0x3bf6(%rip),%rax        # 5fe0 <_ITM_deregisterTMCloneTable@Base>
    23ea:	48 85 c0             	test   %rax,%rax
    23ed:	74 09                	je     23f8 <deregister_tm_clones+0x28>
    23ef:	ff e0                	jmp    *%rax
    23f1:	0f 1f 80 00 00 00 00 	nopl   0x0(%rax)
    23f8:	c3                   	ret    
    23f9:	0f 1f 80 00 00 00 00 	nopl   0x0(%rax)

0000000000002400 <register_tm_clones>:
    2400:	48 8d 3d 11 3c 00 00 	lea    0x3c11(%rip),%rdi        # 6018 <__TMC_END__>
    2407:	48 8d 35 0a 3c 00 00 	lea    0x3c0a(%rip),%rsi        # 6018 <__TMC_END__>
    240e:	48 29 fe             	sub    %rdi,%rsi
    2411:	48 89 f0             	mov    %rsi,%rax
    2414:	48 c1 ee 3f          	shr    $0x3f,%rsi
    2418:	48 c1 f8 03          	sar    $0x3,%rax
    241c:	48 01 c6             	add    %rax,%rsi
    241f:	48 d1 fe             	sar    %rsi
    2422:	74 14                	je     2438 <register_tm_clones+0x38>
    2424:	48 8b 05 c5 3b 00 00 	mov    0x3bc5(%rip),%rax        # 5ff0 <_ITM_registerTMCloneTable@Base>
    242b:	48 85 c0             	test   %rax,%rax
    242e:	74 08                	je     2438 <register_tm_clones+0x38>
    2430:	ff e0                	jmp    *%rax
    2432:	66 0f 1f 44 00 00    	nopw   0x0(%rax,%rax,1)
    2438:	c3                   	ret    
    2439:	0f 1f 80 00 00 00 00 	nopl   0x0(%rax)

0000000000002440 <__do_global_dtors_aux>:
    2440:	f3 0f 1e fa          	endbr64 
    2444:	80 3d 2d 3e 00 00 00 	cmpb   $0x0,0x3e2d(%rip)        # 6278 <completed.0>
    244b:	75 2b                	jne    2478 <__do_global_dtors_aux+0x38>
    244d:	55                   	push   %rbp
    244e:	48 83 3d 72 3b 00 00 	cmpq   $0x0,0x3b72(%rip)        # 5fc8 <__cxa_finalize@GLIBC_2.2.5>
    2455:	00 
    2456:	48 89 e5             	mov    %rsp,%rbp
    2459:	74 0c                	je     2467 <__do_global_dtors_aux+0x27>
    245b:	48 8b 3d a6 3b 00 00 	mov    0x3ba6(%rip),%rdi        # 6008 <__dso_handle>
    2462:	e8 79 fd ff ff       	call   21e0 <__cxa_finalize@plt>
    2467:	e8 64 ff ff ff       	call   23d0 <deregister_tm_clones>
    246c:	c6 05 05 3e 00 00 01 	movb   $0x1,0x3e05(%rip)        # 6278 <completed.0>
    2473:	5d                   	pop    %rbp
    2474:	c3                   	ret    
    2475:	0f 1f 00             	nopl   (%rax)
    2478:	c3                   	ret    
    2479:	0f 1f 80 00 00 00 00 	nopl   0x0(%rax)

0000000000002480 <frame_dummy>:
    2480:	f3 0f 1e fa          	endbr64 
    2484:	e9 77 ff ff ff       	jmp    2400 <register_tm_clones>

0000000000002489 <main>:
    2489:	f3 0f 1e fa          	endbr64 
    248d:	55                   	push   %rbp
    248e:	48 89 e5             	mov    %rsp,%rbp
    2491:	53                   	push   %rbx
    2492:	48 81 ec a8 02 00 00 	sub    $0x2a8,%rsp
    2499:	64 48 8b 04 25 28 00 	mov    %fs:0x28,%rax
    24a0:	00 00 
    24a2:	48 89 45 e8          	mov    %rax,-0x18(%rbp)
    24a6:	31 c0                	xor    %eax,%eax
    24a8:	48 8d 85 c0 fd ff ff 	lea    -0x240(%rbp),%rax
    24af:	48 89 c7             	mov    %rax,%rdi
    24b2:	e8 59 fe ff ff       	call   2310 <_ZNSt7__cxx1112basic_stringIcSt11char_traitsIcESaIcEEC1Ev@plt>
    24b7:	48 8d 85 c0 fd ff ff 	lea    -0x240(%rbp),%rax
    24be:	48 89 c6             	mov    %rax,%rsi
    24c1:	48 8d 05 98 3c 00 00 	lea    0x3c98(%rip),%rax        # 6160 <_ZSt3cin@GLIBCXX_3.4>
    24c8:	48 89 c7             	mov    %rax,%rdi
    24cb:	e8 30 fd ff ff       	call   2200 <_ZSt7getlineIcSt11char_traitsIcESaIcEERSt13basic_istreamIT_T0_ES7_RNSt7__cxx1112basic_stringIS4_S5_T1_EE@plt>
    24d0:	48 8d 85 80 fd ff ff 	lea    -0x280(%rbp),%rax
    24d7:	48 89 c7             	mov    %rax,%rdi
    24da:	e8 bf 04 00 00       	call   299e <_ZNSt6vectorINSt7__cxx1112basic_stringIcSt11char_traitsIcESaIcEEESaIS5_EEC1Ev>
    24df:	48 8d 85 e0 fd ff ff 	lea    -0x220(%rbp),%rax
    24e6:	48 89 c7             	mov    %rax,%rdi
    24e9:	e8 22 fe ff ff       	call   2310 <_ZNSt7__cxx1112basic_stringIcSt11char_traitsIcESaIcEEC1Ev@plt>
    24ee:	be 08 00 00 00       	mov    $0x8,%esi
    24f3:	bf 10 00 00 00       	mov    $0x10,%edi
    24f8:	e8 4a 04 00 00       	call   2947 <_ZStorSt13_Ios_OpenmodeS_>
    24fd:	89 c2                	mov    %eax,%edx
    24ff:	48 8d 8d c0 fd ff ff 	lea    -0x240(%rbp),%rcx
    2506:	48 8d 85 60 fe ff ff 	lea    -0x1a0(%rbp),%rax
    250d:	48 89 ce             	mov    %rcx,%rsi
    2510:	48 89 c7             	mov    %rax,%rdi
    2513:	e8 28 fe ff ff       	call   2340 <_ZNSt7__cxx1118basic_stringstreamIcSt11char_traitsIcESaIcEEC1ERKNS_12basic_stringIcS2_S3_EESt13_Ios_Openmode@plt>
    2518:	eb 19                	jmp    2533 <main+0xaa>
    251a:	48 8d 95 e0 fd ff ff 	lea    -0x220(%rbp),%rdx
    2521:	48 8d 85 80 fd ff ff 	lea    -0x280(%rbp),%rax
    2528:	48 89 d6             	mov    %rdx,%rsi
    252b:	48 89 c7             	mov    %rax,%rdi
    252e:	e8 d9 05 00 00       	call   2b0c <_ZNSt6vectorINSt7__cxx1112basic_stringIcSt11char_traitsIcESaIcEEESaIS5_EE9push_backERKS5_>
    2533:	48 8d 8d e0 fd ff ff 	lea    -0x220(%rbp),%rcx
    253a:	48 8d 85 60 fe ff ff 	lea    -0x1a0(%rbp),%rax
    2541:	ba 20 00 00 00       	mov    $0x20,%edx
    2546:	48 89 ce             	mov    %rcx,%rsi
    2549:	48 89 c7             	mov    %rax,%rdi
    254c:	e8 1f fe ff ff       	call   2370 <_ZSt7getlineIcSt11char_traitsIcESaIcEERSt13basic_istreamIT_T0_ES7_RNSt7__cxx1112basic_stringIS4_S5_T1_EES4_@plt>
    2551:	48 8b 10             	mov    (%rax),%rdx
    2554:	48 83 ea 18          	sub    $0x18,%rdx
    2558:	48 8b 12             	mov    (%rdx),%rdx
    255b:	48 01 d0             	add    %rdx,%rax
    255e:	48 89 c7             	mov    %rax,%rdi
    2561:	e8 9a fd ff ff       	call   2300 <_ZNKSt9basic_iosIcSt11char_traitsIcEEcvbEv@plt>
    2566:	84 c0                	test   %al,%al
    2568:	75 b0                	jne    251a <main+0x91>
    256a:	48 8d 85 a0 fd ff ff 	lea    -0x260(%rbp),%rax
    2571:	48 89 c7             	mov    %rax,%rdi
    2574:	e8 25 04 00 00       	call   299e <_ZNSt6vectorINSt7__cxx1112basic_stringIcSt11char_traitsIcESaIcEEESaIS5_EEC1Ev>
    2579:	48 c7 85 68 fd ff ff 	movq   $0x0,-0x298(%rbp)
    2580:	00 00 00 00 
    2584:	e9 3f 01 00 00       	jmp    26c8 <main+0x23f>
    2589:	48 8d 85 00 fe ff ff 	lea    -0x200(%rbp),%rax
    2590:	48 89 c7             	mov    %rax,%rdi
    2593:	e8 78 fd ff ff       	call   2310 <_ZNSt7__cxx1112basic_stringIcSt11char_traitsIcESaIcEEC1Ev@plt>
    2598:	48 8b 85 68 fd ff ff 	mov    -0x298(%rbp),%rax
    259f:	48 8d 58 01          	lea    0x1(%rax),%rbx
    25a3:	48 8d 85 80 fd ff ff 	lea    -0x280(%rbp),%rax
    25aa:	48 89 c7             	mov    %rax,%rdi
    25ad:	e8 da 05 00 00       	call   2b8c <_ZNKSt6vectorINSt7__cxx1112basic_stringIcSt11char_traitsIcESaIcEEESaIS5_EE4sizeEv>
    25b2:	48 39 c3             	cmp    %rax,%rbx
    25b5:	0f 92 c0             	setb   %al
    25b8:	84 c0                	test   %al,%al
    25ba:	0f 84 aa 00 00 00    	je     266a <main+0x1e1>
    25c0:	48 8b 85 68 fd ff ff 	mov    -0x298(%rbp),%rax
    25c7:	48 8d 50 01          	lea    0x1(%rax),%rdx
    25cb:	48 8d 85 80 fd ff ff 	lea    -0x280(%rbp),%rax
    25d2:	48 89 d6             	mov    %rdx,%rsi
    25d5:	48 89 c7             	mov    %rax,%rdi
    25d8:	e8 d7 05 00 00       	call   2bb4 <_ZNSt6vectorINSt7__cxx1112basic_stringIcSt11char_traitsIcESaIcEEESaIS5_EEixEm>
    25dd:	48 89 c3             	mov    %rax,%rbx
    25e0:	48 8b 95 68 fd ff ff 	mov    -0x298(%rbp),%rdx
    25e7:	48 8d 85 80 fd ff ff 	lea    -0x280(%rbp),%rax
    25ee:	48 89 d6             	mov    %rdx,%rsi
    25f1:	48 89 c7             	mov    %rax,%rdi
    25f4:	e8 bb 05 00 00       	call   2bb4 <_ZNSt6vectorINSt7__cxx1112basic_stringIcSt11char_traitsIcESaIcEEESaIS5_EEixEm>
    25f9:	48 89 c1             	mov    %rax,%rcx
    25fc:	48 8d 85 20 fe ff ff 	lea    -0x1e0(%rbp),%rax
    2603:	48 8d 15 fa 19 00 00 	lea    0x19fa(%rip),%rdx        # 4004 <_IO_stdin_used+0x4>
    260a:	48 89 ce             	mov    %rcx,%rsi
    260d:	48 89 c7             	mov    %rax,%rdi
    2610:	e8 a8 03 00 00       	call   29bd <_ZStplIcSt11char_traitsIcESaIcEENSt7__cxx1112basic_stringIT_T0_T1_EERKS8_PKS5_>
    2615:	48 8d 85 40 fe ff ff 	lea    -0x1c0(%rbp),%rax
    261c:	48 8d 8d 20 fe ff ff 	lea    -0x1e0(%rbp),%rcx
    2623:	48 89 da             	mov    %rbx,%rdx
    2626:	48 89 ce             	mov    %rcx,%rsi
    2629:	48 89 c7             	mov    %rax,%rdi
    262c:	e8 a7 05 00 00       	call   2bd8 <_ZStplIcSt11char_traitsIcESaIcEENSt7__cxx1112basic_stringIT_T0_T1_EEOS8_RKS8_>
    2631:	48 8d 95 40 fe ff ff 	lea    -0x1c0(%rbp),%rdx
    2638:	48 8d 85 00 fe ff ff 	lea    -0x200(%rbp),%rax
    263f:	48 89 d6             	mov    %rdx,%rsi
    2642:	48 89 c7             	mov    %rax,%rdi
    2645:	e8 a6 fc ff ff       	call   22f0 <_ZNSt7__cxx1112basic_stringIcSt11char_traitsIcESaIcEEaSEOS4_@plt>
    264a:	48 8d 85 40 fe ff ff 	lea    -0x1c0(%rbp),%rax
    2651:	48 89 c7             	mov    %rax,%rdi
    2654:	e8 07 fc ff ff       	call   2260 <_ZNSt7__cxx1112basic_stringIcSt11char_traitsIcESaIcEED1Ev@plt>
    2659:	48 8d 85 20 fe ff ff 	lea    -0x1e0(%rbp),%rax
    2660:	48 89 c7             	mov    %rax,%rdi
    2663:	e8 f8 fb ff ff       	call   2260 <_ZNSt7__cxx1112basic_stringIcSt11char_traitsIcESaIcEED1Ev@plt>
    2668:	eb 2e                	jmp    2698 <main+0x20f>
    266a:	48 8b 95 68 fd ff ff 	mov    -0x298(%rbp),%rdx
    2671:	48 8d 85 80 fd ff ff 	lea    -0x280(%rbp),%rax
    2678:	48 89 d6             	mov    %rdx,%rsi
    267b:	48 89 c7             	mov    %rax,%rdi
    267e:	e8 31 05 00 00       	call   2bb4 <_ZNSt6vectorINSt7__cxx1112basic_stringIcSt11char_traitsIcESaIcEEESaIS5_EEixEm>
    2683:	48 89 c2             	mov    %rax,%rdx
    2686:	48 8d 85 00 fe ff ff 	lea    -0x200(%rbp),%rax
    268d:	48 89 d6             	mov    %rdx,%rsi
    2690:	48 89 c7             	mov    %rax,%rdi
    2693:	e8 58 fb ff ff       	call   21f0 <_ZNSt7__cxx1112basic_stringIcSt11char_traitsIcESaIcEEaSERKS4_@plt>
    2698:	48 8d 95 00 fe ff ff 	lea    -0x200(%rbp),%rdx
    269f:	48 8d 85 a0 fd ff ff 	lea    -0x260(%rbp),%rax
    26a6:	48 89 d6             	mov    %rdx,%rsi
    26a9:	48 89 c7             	mov    %rax,%rdi
    26ac:	e8 5b 04 00 00       	call   2b0c <_ZNSt6vectorINSt7__cxx1112basic_stringIcSt11char_traitsIcESaIcEEESaIS5_EE9push_backERKS5_>
    26b1:	48 8d 85 00 fe ff ff 	lea    -0x200(%rbp),%rax
    26b8:	48 89 c7             	mov    %rax,%rdi
    26bb:	e8 a0 fb ff ff       	call   2260 <_ZNSt7__cxx1112basic_stringIcSt11char_traitsIcESaIcEED1Ev@plt>
    26c0:	48 83 85 68 fd ff ff 	addq   $0x2,-0x298(%rbp)
    26c7:	02 
    26c8:	48 8d 85 80 fd ff ff 	lea    -0x280(%rbp),%rax
    26cf:	48 89 c7             	mov    %rax,%rdi
    26d2:	e8 b5 04 00 00       	call   2b8c <_ZNKSt6vectorINSt7__cxx1112basic_stringIcSt11char_traitsIcESaIcEEESaIS5_EE4sizeEv>
    26d7:	48 39 85 68 fd ff ff 	cmp    %rax,-0x298(%rbp)
    26de:	0f 92 c0             	setb   %al
    26e1:	84 c0                	test   %al,%al
    26e3:	0f 85 a0 fe ff ff    	jne    2589 <main+0x100>
    26e9:	48 8d 85 a0 fd ff ff 	lea    -0x260(%rbp),%rax
    26f0:	48 89 85 70 fd ff ff 	mov    %rax,-0x290(%rbp)
    26f7:	48 8b 85 70 fd ff ff 	mov    -0x290(%rbp),%rax
    26fe:	48 89 c7             	mov    %rax,%rdi
    2701:	e8 30 05 00 00       	call   2c36 <_ZNSt6vectorINSt7__cxx1112basic_stringIcSt11char_traitsIcESaIcEEESaIS5_EE5beginEv>
    2706:	48 89 85 58 fd ff ff 	mov    %rax,-0x2a8(%rbp)
    270d:	48 8b 85 70 fd ff ff 	mov    -0x290(%rbp),%rax
    2714:	48 89 c7             	mov    %rax,%rdi
    2717:	e8 66 05 00 00       	call   2c82 <_ZNSt6vectorINSt7__cxx1112basic_stringIcSt11char_traitsIcESaIcEEESaIS5_EE3endEv>
    271c:	48 89 85 60 fd ff ff 	mov    %rax,-0x2a0(%rbp)
    2723:	eb 50                	jmp    2775 <main+0x2ec>
    2725:	48 8d 85 58 fd ff ff 	lea    -0x2a8(%rbp),%rax
    272c:	48 89 c7             	mov    %rax,%rdi
    272f:	e8 02 06 00 00       	call   2d36 <_ZNK9__gnu_cxx17__normal_iteratorIPNSt7__cxx1112basic_stringIcSt11char_traitsIcESaIcEEESt6vectorIS6_SaIS6_EEEdeEv>
    2734:	48 89 85 78 fd ff ff 	mov    %rax,-0x288(%rbp)
    273b:	48 8b 85 78 fd ff ff 	mov    -0x288(%rbp),%rax
    2742:	48 89 c6             	mov    %rax,%rsi
    2745:	48 8d 05 f4 38 00 00 	lea    0x38f4(%rip),%rax        # 6040 <_ZSt4cout@GLIBCXX_3.4>
    274c:	48 89 c7             	mov    %rax,%rdi
    274f:	e8 4c fb ff ff       	call   22a0 <_ZStlsIcSt11char_traitsIcESaIcEERSt13basic_ostreamIT_T0_ES7_RKNSt7__cxx1112basic_stringIS4_S5_T1_EE@plt>
    2754:	48 8b 15 75 38 00 00 	mov    0x3875(%rip),%rdx        # 5fd0 <_ZSt4endlIcSt11char_traitsIcEERSt13basic_ostreamIT_T0_ES6_@GLIBCXX_3.4>
    275b:	48 89 d6             	mov    %rdx,%rsi
    275e:	48 89 c7             	mov    %rax,%rdi
    2761:	e8 6a fb ff ff       	call   22d0 <_ZNSolsEPFRSoS_E@plt>
    2766:	48 8d 85 58 fd ff ff 	lea    -0x2a8(%rbp),%rax
    276d:	48 89 c7             	mov    %rax,%rdi
    2770:	e8 9d 05 00 00       	call   2d12 <_ZN9__gnu_cxx17__normal_iteratorIPNSt7__cxx1112basic_stringIcSt11char_traitsIcESaIcEEESt6vectorIS6_SaIS6_EEEppEv>
    2775:	48 8d 95 60 fd ff ff 	lea    -0x2a0(%rbp),%rdx
    277c:	48 8d 85 58 fd ff ff 	lea    -0x2a8(%rbp),%rax
    2783:	48 89 d6             	mov    %rdx,%rsi
    2786:	48 89 c7             	mov    %rax,%rdi
    2789:	e8 44 05 00 00       	call   2cd2 <_ZN9__gnu_cxxneIPNSt7__cxx1112basic_stringIcSt11char_traitsIcESaIcEEESt6vectorIS6_SaIS6_EEEEbRKNS_17__normal_iteratorIT_T0_EESG_>
    278e:	84 c0                	test   %al,%al
    2790:	75 93                	jne    2725 <main+0x29c>
    2792:	bb 00 00 00 00       	mov    $0x0,%ebx
    2797:	48 8d 85 a0 fd ff ff 	lea    -0x260(%rbp),%rax
    279e:	48 89 c7             	mov    %rax,%rdi
    27a1:	e8 1e 03 00 00       	call   2ac4 <_ZNSt6vectorINSt7__cxx1112basic_stringIcSt11char_traitsIcESaIcEEESaIS5_EED1Ev>
    27a6:	48 8d 85 60 fe ff ff 	lea    -0x1a0(%rbp),%rax
    27ad:	48 89 c7             	mov    %rax,%rdi
    27b0:	e8 bb fa ff ff       	call   2270 <_ZNSt7__cxx1118basic_stringstreamIcSt11char_traitsIcESaIcEED1Ev@plt>
    27b5:	48 8d 85 e0 fd ff ff 	lea    -0x220(%rbp),%rax
    27bc:	48 89 c7             	mov    %rax,%rdi
    27bf:	e8 9c fa ff ff       	call   2260 <_ZNSt7__cxx1112basic_stringIcSt11char_traitsIcESaIcEED1Ev@plt>
    27c4:	48 8d 85 80 fd ff ff 	lea    -0x280(%rbp),%rax
    27cb:	48 89 c7             	mov    %rax,%rdi
    27ce:	e8 f1 02 00 00       	call   2ac4 <_ZNSt6vectorINSt7__cxx1112basic_stringIcSt11char_traitsIcESaIcEEESaIS5_EED1Ev>
    27d3:	48 8d 85 c0 fd ff ff 	lea    -0x240(%rbp),%rax
    27da:	48 89 c7             	mov    %rax,%rdi
    27dd:	e8 7e fa ff ff       	call   2260 <_ZNSt7__cxx1112basic_stringIcSt11char_traitsIcESaIcEED1Ev@plt>
    27e2:	89 d8                	mov    %ebx,%eax
    27e4:	48 8b 55 e8          	mov    -0x18(%rbp),%rdx
    27e8:	64 48 2b 14 25 28 00 	sub    %fs:0x28,%rdx
    27ef:	00 00 
    27f1:	0f 84 b2 00 00 00    	je     28a9 <main+0x420>
    27f7:	e9 a8 00 00 00       	jmp    28a4 <main+0x41b>
    27fc:	f3 0f 1e fa          	endbr64 
    2800:	48 89 c3             	mov    %rax,%rbx
    2803:	48 8d 85 20 fe ff ff 	lea    -0x1e0(%rbp),%rax
    280a:	48 89 c7             	mov    %rax,%rdi
    280d:	e8 4e fa ff ff       	call   2260 <_ZNSt7__cxx1112basic_stringIcSt11char_traitsIcESaIcEED1Ev@plt>
    2812:	eb 07                	jmp    281b <main+0x392>
    2814:	f3 0f 1e fa          	endbr64 
    2818:	48 89 c3             	mov    %rax,%rbx
    281b:	48 8d 85 00 fe ff ff 	lea    -0x200(%rbp),%rax
    2822:	48 89 c7             	mov    %rax,%rdi
    2825:	e8 36 fa ff ff       	call   2260 <_ZNSt7__cxx1112basic_stringIcSt11char_traitsIcESaIcEED1Ev@plt>
    282a:	eb 07                	jmp    2833 <main+0x3aa>
    282c:	f3 0f 1e fa          	endbr64 
    2830:	48 89 c3             	mov    %rax,%rbx
    2833:	48 8d 85 a0 fd ff ff 	lea    -0x260(%rbp),%rax
    283a:	48 89 c7             	mov    %rax,%rdi
    283d:	e8 82 02 00 00       	call   2ac4 <_ZNSt6vectorINSt7__cxx1112basic_stringIcSt11char_traitsIcESaIcEEESaIS5_EED1Ev>
    2842:	eb 07                	jmp    284b <main+0x3c2>
    2844:	f3 0f 1e fa          	endbr64 
    2848:	48 89 c3             	mov    %rax,%rbx
    284b:	48 8d 85 60 fe ff ff 	lea    -0x1a0(%rbp),%rax
    2852:	48 89 c7             	mov    %rax,%rdi
    2855:	e8 16 fa ff ff       	call   2270 <_ZNSt7__cxx1118basic_stringstreamIcSt11char_traitsIcESaIcEED1Ev@plt>
    285a:	eb 07                	jmp    2863 <main+0x3da>
    285c:	f3 0f 1e fa          	endbr64 
    2860:	48 89 c3             	mov    %rax,%rbx
    2863:	48 8d 85 e0 fd ff ff 	lea    -0x220(%rbp),%rax
    286a:	48 89 c7             	mov    %rax,%rdi
    286d:	e8 ee f9 ff ff       	call   2260 <_ZNSt7__cxx1112basic_stringIcSt11char_traitsIcESaIcEED1Ev@plt>
    2872:	48 8d 85 80 fd ff ff 	lea    -0x280(%rbp),%rax
    2879:	48 89 c7             	mov    %rax,%rdi
    287c:	e8 43 02 00 00       	call   2ac4 <_ZNSt6vectorINSt7__cxx1112basic_stringIcSt11char_traitsIcESaIcEEESaIS5_EED1Ev>
    2881:	eb 07                	jmp    288a <main+0x401>
    2883:	f3 0f 1e fa          	endbr64 
    2887:	48 89 c3             	mov    %rax,%rbx
    288a:	48 8d 85 c0 fd ff ff 	lea    -0x240(%rbp),%rax
    2891:	48 89 c7             	mov    %rax,%rdi
    2894:	e8 c7 f9 ff ff       	call   2260 <_ZNSt7__cxx1112basic_stringIcSt11char_traitsIcESaIcEED1Ev@plt>
    2899:	48 89 d8             	mov    %rbx,%rax
    289c:	48 89 c7             	mov    %rax,%rdi
    289f:	e8 bc fa ff ff       	call   2360 <_Unwind_Resume@plt>
    28a4:	e8 37 fa ff ff       	call   22e0 <__stack_chk_fail@plt>
    28a9:	48 8b 5d f8          	mov    -0x8(%rbp),%rbx
    28ad:	c9                   	leave  
    28ae:	c3                   	ret    

00000000000028af <_Z41__static_initialization_and_destruction_0ii>:
    28af:	f3 0f 1e fa          	endbr64 
    28b3:	55                   	push   %rbp
    28b4:	48 89 e5             	mov    %rsp,%rbp
    28b7:	48 83 ec 10          	sub    $0x10,%rsp
    28bb:	89 7d fc             	mov    %edi,-0x4(%rbp)
    28be:	89 75 f8             	mov    %esi,-0x8(%rbp)
    28c1:	83 7d fc 01          	cmpl   $0x1,-0x4(%rbp)
    28c5:	75 3b                	jne    2902 <_Z41__static_initialization_and_destruction_0ii+0x53>
    28c7:	81 7d f8 ff ff 00 00 	cmpl   $0xffff,-0x8(%rbp)
    28ce:	75 32                	jne    2902 <_Z41__static_initialization_and_destruction_0ii+0x53>
    28d0:	48 8d 05 a2 39 00 00 	lea    0x39a2(%rip),%rax        # 6279 <_ZStL8__ioinit>
    28d7:	48 89 c7             	mov    %rax,%rdi
    28da:	e8 51 fa ff ff       	call   2330 <_ZNSt8ios_base4InitC1Ev@plt>
    28df:	48 8d 05 22 37 00 00 	lea    0x3722(%rip),%rax        # 6008 <__dso_handle>
    28e6:	48 89 c2             	mov    %rax,%rdx
    28e9:	48 8d 05 89 39 00 00 	lea    0x3989(%rip),%rax        # 6279 <_ZStL8__ioinit>
    28f0:	48 89 c6             	mov    %rax,%rsi
    28f3:	48 8b 05 fe 36 00 00 	mov    0x36fe(%rip),%rax        # 5ff8 <_ZNSt8ios_base4InitD1Ev@GLIBCXX_3.4>
    28fa:	48 89 c7             	mov    %rax,%rdi
    28fd:	e8 8e f9 ff ff       	call   2290 <__cxa_atexit@plt>
    2902:	90                   	nop
    2903:	c9                   	leave  
    2904:	c3                   	ret    

0000000000002905 <_GLOBAL__sub_I_main>:
    2905:	f3 0f 1e fa          	endbr64 
    2909:	55                   	push   %rbp
    290a:	48 89 e5             	mov    %rsp,%rbp
    290d:	be ff ff 00 00       	mov    $0xffff,%esi
    2912:	bf 01 00 00 00       	mov    $0x1,%edi
    2917:	e8 93 ff ff ff       	call   28af <_Z41__static_initialization_and_destruction_0ii>
    291c:	5d                   	pop    %rbp
    291d:	c3                   	ret    

000000000000291e <_ZnwmPv>:
    291e:	f3 0f 1e fa          	endbr64 
    2922:	55                   	push   %rbp
    2923:	48 89 e5             	mov    %rsp,%rbp
    2926:	48 89 7d f8          	mov    %rdi,-0x8(%rbp)
    292a:	48 89 75 f0          	mov    %rsi,-0x10(%rbp)
    292e:	48 8b 45 f0          	mov    -0x10(%rbp),%rax
    2932:	5d                   	pop    %rbp
    2933:	c3                   	ret    

0000000000002934 <_ZdlPvS_>:
    2934:	f3 0f 1e fa          	endbr64 
    2938:	55                   	push   %rbp
    2939:	48 89 e5             	mov    %rsp,%rbp
    293c:	48 89 7d f8          	mov    %rdi,-0x8(%rbp)
    2940:	48 89 75 f0          	mov    %rsi,-0x10(%rbp)
    2944:	90                   	nop
    2945:	5d                   	pop    %rbp
    2946:	c3                   	ret    

0000000000002947 <_ZStorSt13_Ios_OpenmodeS_>:
    2947:	f3 0f 1e fa          	endbr64 
    294b:	55                   	push   %rbp
    294c:	48 89 e5             	mov    %rsp,%rbp
    294f:	89 7d fc             	mov    %edi,-0x4(%rbp)
    2952:	89 75 f8             	mov    %esi,-0x8(%rbp)
    2955:	8b 45 fc             	mov    -0x4(%rbp),%eax
    2958:	0b 45 f8             	or     -0x8(%rbp),%eax
    295b:	5d                   	pop    %rbp
    295c:	c3                   	ret    
    295d:	90                   	nop

000000000000295e <_ZNSt12_Vector_baseINSt7__cxx1112basic_stringIcSt11char_traitsIcESaIcEEESaIS5_EE12_Vector_implD1Ev>:
    295e:	f3 0f 1e fa          	endbr64 
    2962:	55                   	push   %rbp
    2963:	48 89 e5             	mov    %rsp,%rbp
    2966:	48 83 ec 10          	sub    $0x10,%rsp
    296a:	48 89 7d f8          	mov    %rdi,-0x8(%rbp)
    296e:	48 8b 45 f8          	mov    -0x8(%rbp),%rax
    2972:	48 89 c7             	mov    %rax,%rdi
    2975:	e8 d8 00 00 00       	call   2a52 <_ZNSaINSt7__cxx1112basic_stringIcSt11char_traitsIcESaIcEEEED1Ev>
    297a:	90                   	nop
    297b:	c9                   	leave  
    297c:	c3                   	ret    
    297d:	90                   	nop

000000000000297e <_ZNSt12_Vector_baseINSt7__cxx1112basic_stringIcSt11char_traitsIcESaIcEEESaIS5_EEC1Ev>:
    297e:	f3 0f 1e fa          	endbr64 
    2982:	55                   	push   %rbp
    2983:	48 89 e5             	mov    %rsp,%rbp
    2986:	48 83 ec 10          	sub    $0x10,%rsp
    298a:	48 89 7d f8          	mov    %rdi,-0x8(%rbp)
    298e:	48 8b 45 f8          	mov    -0x8(%rbp),%rax
    2992:	48 89 c7             	mov    %rax,%rdi
    2995:	e8 8c 00 00 00       	call   2a26 <_ZNSt12_Vector_baseINSt7__cxx1112basic_stringIcSt11char_traitsIcESaIcEEESaIS5_EE12_Vector_implC1Ev>
    299a:	90                   	nop
    299b:	c9                   	leave  
    299c:	c3                   	ret    
    299d:	90                   	nop

000000000000299e <_ZNSt6vectorINSt7__cxx1112basic_stringIcSt11char_traitsIcESaIcEEESaIS5_EEC1Ev>:
    299e:	f3 0f 1e fa          	endbr64 
    29a2:	55                   	push   %rbp
    29a3:	48 89 e5             	mov    %rsp,%rbp
    29a6:	48 83 ec 10          	sub    $0x10,%rsp
    29aa:	48 89 7d f8          	mov    %rdi,-0x8(%rbp)
    29ae:	48 8b 45 f8          	mov    -0x8(%rbp),%rax
    29b2:	48 89 c7             	mov    %rax,%rdi
    29b5:	e8 c4 ff ff ff       	call   297e <_ZNSt12_Vector_baseINSt7__cxx1112basic_stringIcSt11char_traitsIcESaIcEEESaIS5_EEC1Ev>
    29ba:	90                   	nop
    29bb:	c9                   	leave  
    29bc:	c3                   	ret    

00000000000029bd <_ZStplIcSt11char_traitsIcESaIcEENSt7__cxx1112basic_stringIT_T0_T1_EERKS8_PKS5_>:
    29bd:	f3 0f 1e fa          	endbr64 
    29c1:	55                   	push   %rbp
    29c2:	48 89 e5             	mov    %rsp,%rbp
    29c5:	53                   	push   %rbx
    29c6:	48 83 ec 28          	sub    $0x28,%rsp
    29ca:	48 89 7d e8          	mov    %rdi,-0x18(%rbp)
    29ce:	48 89 75 e0          	mov    %rsi,-0x20(%rbp)
    29d2:	48 89 55 d8          	mov    %rdx,-0x28(%rbp)
    29d6:	48 8b 55 e0          	mov    -0x20(%rbp),%rdx
    29da:	48 8b 45 e8          	mov    -0x18(%rbp),%rax
    29de:	48 89 d6             	mov    %rdx,%rsi
    29e1:	48 89 c7             	mov    %rax,%rdi
    29e4:	e8 47 f8 ff ff       	call   2230 <_ZNSt7__cxx1112basic_stringIcSt11char_traitsIcESaIcEEC1ERKS4_@plt>
    29e9:	48 8b 55 d8          	mov    -0x28(%rbp),%rdx
    29ed:	48 8b 45 e8          	mov    -0x18(%rbp),%rax
    29f1:	48 89 d6             	mov    %rdx,%rsi
    29f4:	48 89 c7             	mov    %rax,%rdi
    29f7:	e8 84 f9 ff ff       	call   2380 <_ZNSt7__cxx1112basic_stringIcSt11char_traitsIcESaIcEE6appendEPKc@plt>
    29fc:	eb 1e                	jmp    2a1c <_ZStplIcSt11char_traitsIcESaIcEENSt7__cxx1112basic_stringIT_T0_T1_EERKS8_PKS5_+0x5f>
    29fe:	f3 0f 1e fa          	endbr64 
    2a02:	48 89 c3             	mov    %rax,%rbx
    2a05:	48 8b 45 e8          	mov    -0x18(%rbp),%rax
    2a09:	48 89 c7             	mov    %rax,%rdi
    2a0c:	e8 4f f8 ff ff       	call   2260 <_ZNSt7__cxx1112basic_stringIcSt11char_traitsIcESaIcEED1Ev@plt>
    2a11:	48 89 d8             	mov    %rbx,%rax
    2a14:	48 89 c7             	mov    %rax,%rdi
    2a17:	e8 44 f9 ff ff       	call   2360 <_Unwind_Resume@plt>
    2a1c:	48 8b 45 e8          	mov    -0x18(%rbp),%rax
    2a20:	48 8b 5d f8          	mov    -0x8(%rbp),%rbx
    2a24:	c9                   	leave  
    2a25:	c3                   	ret    

0000000000002a26 <_ZNSt12_Vector_baseINSt7__cxx1112basic_stringIcSt11char_traitsIcESaIcEEESaIS5_EE12_Vector_implC1Ev>:
    2a26:	f3 0f 1e fa          	endbr64 
    2a2a:	55                   	push   %rbp
    2a2b:	48 89 e5             	mov    %rsp,%rbp
    2a2e:	48 83 ec 10          	sub    $0x10,%rsp
    2a32:	48 89 7d f8          	mov    %rdi,-0x8(%rbp)
    2a36:	48 8b 45 f8          	mov    -0x8(%rbp),%rax
    2a3a:	48 89 c7             	mov    %rax,%rdi
    2a3d:	e8 1c 03 00 00       	call   2d5e <_ZNSaINSt7__cxx1112basic_stringIcSt11char_traitsIcESaIcEEEEC1Ev>
    2a42:	48 8b 45 f8          	mov    -0x8(%rbp),%rax
    2a46:	48 89 c7             	mov    %rax,%rdi
    2a49:	e8 30 03 00 00       	call   2d7e <_ZNSt12_Vector_baseINSt7__cxx1112basic_stringIcSt11char_traitsIcESaIcEEESaIS5_EE17_Vector_impl_dataC1Ev>
    2a4e:	90                   	nop
    2a4f:	c9                   	leave  
    2a50:	c3                   	ret    
    2a51:	90                   	nop

0000000000002a52 <_ZNSaINSt7__cxx1112basic_stringIcSt11char_traitsIcESaIcEEEED1Ev>:
    2a52:	f3 0f 1e fa          	endbr64 
    2a56:	55                   	push   %rbp
    2a57:	48 89 e5             	mov    %rsp,%rbp
    2a5a:	48 83 ec 10          	sub    $0x10,%rsp
    2a5e:	48 89 7d f8          	mov    %rdi,-0x8(%rbp)
    2a62:	48 8b 45 f8          	mov    -0x8(%rbp),%rax
    2a66:	48 89 c7             	mov    %rax,%rdi
    2a69:	e8 42 03 00 00       	call   2db0 <_ZN9__gnu_cxx13new_allocatorINSt7__cxx1112basic_stringIcSt11char_traitsIcESaIcEEEED1Ev>
    2a6e:	90                   	nop
    2a6f:	c9                   	leave  
    2a70:	c3                   	ret    
    2a71:	90                   	nop

0000000000002a72 <_ZNSt12_Vector_baseINSt7__cxx1112basic_stringIcSt11char_traitsIcESaIcEEESaIS5_EED1Ev>:
    2a72:	f3 0f 1e fa          	endbr64 
    2a76:	55                   	push   %rbp
    2a77:	48 89 e5             	mov    %rsp,%rbp
    2a7a:	48 83 ec 10          	sub    $0x10,%rsp
    2a7e:	48 89 7d f8          	mov    %rdi,-0x8(%rbp)
    2a82:	48 8b 45 f8          	mov    -0x8(%rbp),%rax
    2a86:	48 8b 50 10          	mov    0x10(%rax),%rdx
    2a8a:	48 8b 45 f8          	mov    -0x8(%rbp),%rax
    2a8e:	48 8b 08             	mov    (%rax),%rcx
    2a91:	48 89 d0             	mov    %rdx,%rax
    2a94:	48 29 c8             	sub    %rcx,%rax
    2a97:	48 c1 f8 05          	sar    $0x5,%rax
    2a9b:	48 89 c2             	mov    %rax,%rdx
    2a9e:	48 8b 45 f8          	mov    -0x8(%rbp),%rax
    2aa2:	48 8b 08             	mov    (%rax),%rcx
    2aa5:	48 8b 45 f8          	mov    -0x8(%rbp),%rax
    2aa9:	48 89 ce             	mov    %rcx,%rsi
    2aac:	48 89 c7             	mov    %rax,%rdi
    2aaf:	e8 0c 03 00 00       	call   2dc0 <_ZNSt12_Vector_baseINSt7__cxx1112basic_stringIcSt11char_traitsIcESaIcEEESaIS5_EE13_M_deallocateEPS5_m>
    2ab4:	48 8b 45 f8          	mov    -0x8(%rbp),%rax
    2ab8:	48 89 c7             	mov    %rax,%rdi
    2abb:	e8 9e fe ff ff       	call   295e <_ZNSt12_Vector_baseINSt7__cxx1112basic_stringIcSt11char_traitsIcESaIcEEESaIS5_EE12_Vector_implD1Ev>
    2ac0:	90                   	nop
    2ac1:	c9                   	leave  
    2ac2:	c3                   	ret    
    2ac3:	90                   	nop

0000000000002ac4 <_ZNSt6vectorINSt7__cxx1112basic_stringIcSt11char_traitsIcESaIcEEESaIS5_EED1Ev>:
    2ac4:	f3 0f 1e fa          	endbr64 
    2ac8:	55                   	push   %rbp
    2ac9:	48 89 e5             	mov    %rsp,%rbp
    2acc:	48 83 ec 10          	sub    $0x10,%rsp
    2ad0:	48 89 7d f8          	mov    %rdi,-0x8(%rbp)
    2ad4:	48 8b 45 f8          	mov    -0x8(%rbp),%rax
    2ad8:	48 89 c7             	mov    %rax,%rdi
    2adb:	e8 1a 03 00 00       	call   2dfa <_ZNSt12_Vector_baseINSt7__cxx1112basic_stringIcSt11char_traitsIcESaIcEEESaIS5_EE19_M_get_Tp_allocatorEv>
    2ae0:	48 89 c2             	mov    %rax,%rdx
    2ae3:	48 8b 45 f8          	mov    -0x8(%rbp),%rax
    2ae7:	48 8b 48 08          	mov    0x8(%rax),%rcx
    2aeb:	48 8b 45 f8          	mov    -0x8(%rbp),%rax
    2aef:	48 8b 00             	mov    (%rax),%rax
    2af2:	48 89 ce             	mov    %rcx,%rsi
    2af5:	48 89 c7             	mov    %rax,%rdi
    2af8:	e8 0f 03 00 00       	call   2e0c <_ZSt8_DestroyIPNSt7__cxx1112basic_stringIcSt11char_traitsIcESaIcEEES5_EvT_S7_RSaIT0_E>
    2afd:	48 8b 45 f8          	mov    -0x8(%rbp),%rax
    2b01:	48 89 c7             	mov    %rax,%rdi
    2b04:	e8 69 ff ff ff       	call   2a72 <_ZNSt12_Vector_baseINSt7__cxx1112basic_stringIcSt11char_traitsIcESaIcEEESaIS5_EED1Ev>
    2b09:	90                   	nop
    2b0a:	c9                   	leave  
    2b0b:	c3                   	ret    

0000000000002b0c <_ZNSt6vectorINSt7__cxx1112basic_stringIcSt11char_traitsIcESaIcEEESaIS5_EE9push_backERKS5_>:
    2b0c:	f3 0f 1e fa          	endbr64 
    2b10:	55                   	push   %rbp
    2b11:	48 89 e5             	mov    %rsp,%rbp
    2b14:	48 83 ec 10          	sub    $0x10,%rsp
    2b18:	48 89 7d f8          	mov    %rdi,-0x8(%rbp)
    2b1c:	48 89 75 f0          	mov    %rsi,-0x10(%rbp)
    2b20:	48 8b 45 f8          	mov    -0x8(%rbp),%rax
    2b24:	48 8b 50 08          	mov    0x8(%rax),%rdx
    2b28:	48 8b 45 f8          	mov    -0x8(%rbp),%rax
    2b2c:	48 8b 40 10          	mov    0x10(%rax),%rax
    2b30:	48 39 c2             	cmp    %rax,%rdx
    2b33:	74 31                	je     2b66 <_ZNSt6vectorINSt7__cxx1112basic_stringIcSt11char_traitsIcESaIcEEESaIS5_EE9push_backERKS5_+0x5a>
    2b35:	48 8b 45 f8          	mov    -0x8(%rbp),%rax
    2b39:	48 8b 48 08          	mov    0x8(%rax),%rcx
    2b3d:	48 8b 45 f8          	mov    -0x8(%rbp),%rax
    2b41:	48 8b 55 f0          	mov    -0x10(%rbp),%rdx
    2b45:	48 89 ce             	mov    %rcx,%rsi
    2b48:	48 89 c7             	mov    %rax,%rdi
    2b4b:	e8 ea 02 00 00       	call   2e3a <_ZNSt16allocator_traitsISaINSt7__cxx1112basic_stringIcSt11char_traitsIcESaIcEEEEE9constructIS5_JRKS5_EEEvRS6_PT_DpOT0_>
    2b50:	48 8b 45 f8          	mov    -0x8(%rbp),%rax
    2b54:	48 8b 40 08          	mov    0x8(%rax),%rax
    2b58:	48 8d 50 20          	lea    0x20(%rax),%rdx
    2b5c:	48 8b 45 f8          	mov    -0x8(%rbp),%rax
    2b60:	48 89 50 08          	mov    %rdx,0x8(%rax)
    2b64:	eb 22                	jmp    2b88 <_ZNSt6vectorINSt7__cxx1112basic_stringIcSt11char_traitsIcESaIcEEESaIS5_EE9push_backERKS5_+0x7c>
    2b66:	48 8b 45 f8          	mov    -0x8(%rbp),%rax
    2b6a:	48 89 c7             	mov    %rax,%rdi
    2b6d:	e8 10 01 00 00       	call   2c82 <_ZNSt6vectorINSt7__cxx1112basic_stringIcSt11char_traitsIcESaIcEEESaIS5_EE3endEv>
    2b72:	48 89 c1             	mov    %rax,%rcx
    2b75:	48 8b 55 f0          	mov    -0x10(%rbp),%rdx
    2b79:	48 8b 45 f8          	mov    -0x8(%rbp),%rax
    2b7d:	48 89 ce             	mov    %rcx,%rsi
    2b80:	48 89 c7             	mov    %rax,%rdi
    2b83:	e8 f0 02 00 00       	call   2e78 <_ZNSt6vectorINSt7__cxx1112basic_stringIcSt11char_traitsIcESaIcEEESaIS5_EE17_M_realloc_insertIJRKS5_EEEvN9__gnu_cxx17__normal_iteratorIPS5_S7_EEDpOT_>
    2b88:	90                   	nop
    2b89:	c9                   	leave  
    2b8a:	c3                   	ret    
    2b8b:	90                   	nop

0000000000002b8c <_ZNKSt6vectorINSt7__cxx1112basic_stringIcSt11char_traitsIcESaIcEEESaIS5_EE4sizeEv>:
    2b8c:	f3 0f 1e fa          	endbr64 
    2b90:	55                   	push   %rbp
    2b91:	48 89 e5             	mov    %rsp,%rbp
    2b94:	48 89 7d f8          	mov    %rdi,-0x8(%rbp)
    2b98:	48 8b 45 f8          	mov    -0x8(%rbp),%rax
    2b9c:	48 8b 50 08          	mov    0x8(%rax),%rdx
    2ba0:	48 8b 45 f8          	mov    -0x8(%rbp),%rax
    2ba4:	48 8b 08             	mov    (%rax),%rcx
    2ba7:	48 89 d0             	mov    %rdx,%rax
    2baa:	48 29 c8             	sub    %rcx,%rax
    2bad:	48 c1 f8 05          	sar    $0x5,%rax
    2bb1:	5d                   	pop    %rbp
    2bb2:	c3                   	ret    
    2bb3:	90                   	nop

0000000000002bb4 <_ZNSt6vectorINSt7__cxx1112basic_stringIcSt11char_traitsIcESaIcEEESaIS5_EEixEm>:
    2bb4:	f3 0f 1e fa          	endbr64 
    2bb8:	55                   	push   %rbp
    2bb9:	48 89 e5             	mov    %rsp,%rbp
    2bbc:	48 89 7d f8          	mov    %rdi,-0x8(%rbp)
    2bc0:	48 89 75 f0          	mov    %rsi,-0x10(%rbp)
    2bc4:	48 8b 45 f8          	mov    -0x8(%rbp),%rax
    2bc8:	48 8b 10             	mov    (%rax),%rdx
    2bcb:	48 8b 45 f0          	mov    -0x10(%rbp),%rax
    2bcf:	48 c1 e0 05          	shl    $0x5,%rax
    2bd3:	48 01 d0             	add    %rdx,%rax
    2bd6:	5d                   	pop    %rbp
    2bd7:	c3                   	ret    

0000000000002bd8 <_ZStplIcSt11char_traitsIcESaIcEENSt7__cxx1112basic_stringIT_T0_T1_EEOS8_RKS8_>:
    2bd8:	f3 0f 1e fa          	endbr64 
    2bdc:	55                   	push   %rbp
    2bdd:	48 89 e5             	mov    %rsp,%rbp
    2be0:	48 83 ec 20          	sub    $0x20,%rsp
    2be4:	48 89 7d f8          	mov    %rdi,-0x8(%rbp)
    2be8:	48 89 75 f0          	mov    %rsi,-0x10(%rbp)
    2bec:	48 89 55 e8          	mov    %rdx,-0x18(%rbp)
    2bf0:	48 8b 55 e8          	mov    -0x18(%rbp),%rdx
    2bf4:	48 8b 45 f0          	mov    -0x10(%rbp),%rax
    2bf8:	48 89 d6             	mov    %rdx,%rsi
    2bfb:	48 89 c7             	mov    %rax,%rdi
    2bfe:	e8 8d f7 ff ff       	call   2390 <_ZNSt7__cxx1112basic_stringIcSt11char_traitsIcESaIcEE6appendERKS4_@plt>
    2c03:	48 89 c7             	mov    %rax,%rdi
    2c06:	e8 40 01 00 00       	call   2d4b <_ZSt4moveIRNSt7__cxx1112basic_stringIcSt11char_traitsIcESaIcEEEEONSt16remove_referenceIT_E4typeEOS8_>
    2c0b:	48 89 c2             	mov    %rax,%rdx
    2c0e:	48 8b 45 f8          	mov    -0x8(%rbp),%rax
    2c12:	48 89 d6             	mov    %rdx,%rsi
    2c15:	48 89 c7             	mov    %rax,%rdi
    2c18:	e8 33 f6 ff ff       	call   2250 <_ZNSt7__cxx1112basic_stringIcSt11char_traitsIcESaIcEEC1EOS4_@plt>
    2c1d:	48 8b 45 f8          	mov    -0x8(%rbp),%rax
    2c21:	c9                   	leave  
    2c22:	c3                   	ret    

0000000000002c23 <_ZSt11__addressofINSt7__cxx1112basic_stringIcSt11char_traitsIcESaIcEEEEPT_RS6_>:
    2c23:	f3 0f 1e fa          	endbr64 
    2c27:	55                   	push   %rbp
    2c28:	48 89 e5             	mov    %rsp,%rbp
    2c2b:	48 89 7d f8          	mov    %rdi,-0x8(%rbp)
    2c2f:	48 8b 45 f8          	mov    -0x8(%rbp),%rax
    2c33:	5d                   	pop    %rbp
    2c34:	c3                   	ret    
    2c35:	90                   	nop

0000000000002c36 <_ZNSt6vectorINSt7__cxx1112basic_stringIcSt11char_traitsIcESaIcEEESaIS5_EE5beginEv>:
    2c36:	f3 0f 1e fa          	endbr64 
    2c3a:	55                   	push   %rbp
    2c3b:	48 89 e5             	mov    %rsp,%rbp
    2c3e:	48 83 ec 20          	sub    $0x20,%rsp
    2c42:	48 89 7d e8          	mov    %rdi,-0x18(%rbp)
    2c46:	64 48 8b 04 25 28 00 	mov    %fs:0x28,%rax
    2c4d:	00 00 
    2c4f:	48 89 45 f8          	mov    %rax,-0x8(%rbp)
    2c53:	31 c0                	xor    %eax,%eax
    2c55:	48 8b 55 e8          	mov    -0x18(%rbp),%rdx
    2c59:	48 8d 45 f0          	lea    -0x10(%rbp),%rax
    2c5d:	48 89 d6             	mov    %rdx,%rsi
    2c60:	48 89 c7             	mov    %rax,%rdi
    2c63:	e8 5c 04 00 00       	call   30c4 <_ZN9__gnu_cxx17__normal_iteratorIPNSt7__cxx1112basic_stringIcSt11char_traitsIcESaIcEEESt6vectorIS6_SaIS6_EEEC1ERKS7_>
    2c68:	48 8b 45 f0          	mov    -0x10(%rbp),%rax
    2c6c:	48 8b 55 f8          	mov    -0x8(%rbp),%rdx
    2c70:	64 48 2b 14 25 28 00 	sub    %fs:0x28,%rdx
    2c77:	00 00 
    2c79:	74 05                	je     2c80 <_ZNSt6vectorINSt7__cxx1112basic_stringIcSt11char_traitsIcESaIcEEESaIS5_EE5beginEv+0x4a>
    2c7b:	e8 60 f6 ff ff       	call   22e0 <__stack_chk_fail@plt>
    2c80:	c9                   	leave  
    2c81:	c3                   	ret    

0000000000002c82 <_ZNSt6vectorINSt7__cxx1112basic_stringIcSt11char_traitsIcESaIcEEESaIS5_EE3endEv>:
    2c82:	f3 0f 1e fa          	endbr64 
    2c86:	55                   	push   %rbp
    2c87:	48 89 e5             	mov    %rsp,%rbp
    2c8a:	48 83 ec 20          	sub    $0x20,%rsp
    2c8e:	48 89 7d e8          	mov    %rdi,-0x18(%rbp)
    2c92:	64 48 8b 04 25 28 00 	mov    %fs:0x28,%rax
    2c99:	00 00 
    2c9b:	48 89 45 f8          	mov    %rax,-0x8(%rbp)
    2c9f:	31 c0                	xor    %eax,%eax
    2ca1:	48 8b 45 e8          	mov    -0x18(%rbp),%rax
    2ca5:	48 8d 50 08          	lea    0x8(%rax),%rdx
    2ca9:	48 8d 45 f0          	lea    -0x10(%rbp),%rax
    2cad:	48 89 d6             	mov    %rdx,%rsi
    2cb0:	48 89 c7             	mov    %rax,%rdi
    2cb3:	e8 0c 04 00 00       	call   30c4 <_ZN9__gnu_cxx17__normal_iteratorIPNSt7__cxx1112basic_stringIcSt11char_traitsIcESaIcEEESt6vectorIS6_SaIS6_EEEC1ERKS7_>
    2cb8:	48 8b 45 f0          	mov    -0x10(%rbp),%rax
    2cbc:	48 8b 55 f8          	mov    -0x8(%rbp),%rdx
    2cc0:	64 48 2b 14 25 28 00 	sub    %fs:0x28,%rdx
    2cc7:	00 00 
    2cc9:	74 05                	je     2cd0 <_ZNSt6vectorINSt7__cxx1112basic_stringIcSt11char_traitsIcESaIcEEESaIS5_EE3endEv+0x4e>
    2ccb:	e8 10 f6 ff ff       	call   22e0 <__stack_chk_fail@plt>
    2cd0:	c9                   	leave  
    2cd1:	c3                   	ret    

0000000000002cd2 <_ZN9__gnu_cxxneIPNSt7__cxx1112basic_stringIcSt11char_traitsIcESaIcEEESt6vectorIS6_SaIS6_EEEEbRKNS_17__normal_iteratorIT_T0_EESG_>:
    2cd2:	f3 0f 1e fa          	endbr64 
    2cd6:	55                   	push   %rbp
    2cd7:	48 89 e5             	mov    %rsp,%rbp
    2cda:	53                   	push   %rbx
    2cdb:	48 83 ec 18          	sub    $0x18,%rsp
    2cdf:	48 89 7d e8          	mov    %rdi,-0x18(%rbp)
    2ce3:	48 89 75 e0          	mov    %rsi,-0x20(%rbp)
    2ce7:	48 8b 45 e8          	mov    -0x18(%rbp),%rax
    2ceb:	48 89 c7             	mov    %rax,%rdi
    2cee:	e8 f3 03 00 00       	call   30e6 <_ZNK9__gnu_cxx17__normal_iteratorIPNSt7__cxx1112basic_stringIcSt11char_traitsIcESaIcEEESt6vectorIS6_SaIS6_EEE4baseEv>
    2cf3:	48 8b 18             	mov    (%rax),%rbx
    2cf6:	48 8b 45 e0          	mov    -0x20(%rbp),%rax
    2cfa:	48 89 c7             	mov    %rax,%rdi
    2cfd:	e8 e4 03 00 00       	call   30e6 <_ZNK9__gnu_cxx17__normal_iteratorIPNSt7__cxx1112basic_stringIcSt11char_traitsIcESaIcEEESt6vectorIS6_SaIS6_EEE4baseEv>
    2d02:	48 8b 00             	mov    (%rax),%rax
    2d05:	48 39 c3             	cmp    %rax,%rbx
    2d08:	0f 95 c0             	setne  %al
    2d0b:	48 8b 5d f8          	mov    -0x8(%rbp),%rbx
    2d0f:	c9                   	leave  
    2d10:	c3                   	ret    
    2d11:	90                   	nop

0000000000002d12 <_ZN9__gnu_cxx17__normal_iteratorIPNSt7__cxx1112basic_stringIcSt11char_traitsIcESaIcEEESt6vectorIS6_SaIS6_EEEppEv>:
    2d12:	f3 0f 1e fa          	endbr64 
    2d16:	55                   	push   %rbp
    2d17:	48 89 e5             	mov    %rsp,%rbp
    2d1a:	48 89 7d f8          	mov    %rdi,-0x8(%rbp)
    2d1e:	48 8b 45 f8          	mov    -0x8(%rbp),%rax
    2d22:	48 8b 00             	mov    (%rax),%rax
    2d25:	48 8d 50 20          	lea    0x20(%rax),%rdx
    2d29:	48 8b 45 f8          	mov    -0x8(%rbp),%rax
    2d2d:	48 89 10             	mov    %rdx,(%rax)
    2d30:	48 8b 45 f8          	mov    -0x8(%rbp),%rax
    2d34:	5d                   	pop    %rbp
    2d35:	c3                   	ret    

0000000000002d36 <_ZNK9__gnu_cxx17__normal_iteratorIPNSt7__cxx1112basic_stringIcSt11char_traitsIcESaIcEEESt6vectorIS6_SaIS6_EEEdeEv>:
    2d36:	f3 0f 1e fa          	endbr64 
    2d3a:	55                   	push   %rbp
    2d3b:	48 89 e5             	mov    %rsp,%rbp
    2d3e:	48 89 7d f8          	mov    %rdi,-0x8(%rbp)
    2d42:	48 8b 45 f8          	mov    -0x8(%rbp),%rax
    2d46:	48 8b 00             	mov    (%rax),%rax
    2d49:	5d                   	pop    %rbp
    2d4a:	c3                   	ret    

0000000000002d4b <_ZSt4moveIRNSt7__cxx1112basic_stringIcSt11char_traitsIcESaIcEEEEONSt16remove_referenceIT_E4typeEOS8_>:
    2d4b:	f3 0f 1e fa          	endbr64 
    2d4f:	55                   	push   %rbp
    2d50:	48 89 e5             	mov    %rsp,%rbp
    2d53:	48 89 7d f8          	mov    %rdi,-0x8(%rbp)
    2d57:	48 8b 45 f8          	mov    -0x8(%rbp),%rax
    2d5b:	5d                   	pop    %rbp
    2d5c:	c3                   	ret    
    2d5d:	90                   	nop

0000000000002d5e <_ZNSaINSt7__cxx1112basic_stringIcSt11char_traitsIcESaIcEEEEC1Ev>:
    2d5e:	f3 0f 1e fa          	endbr64 
    2d62:	55                   	push   %rbp
    2d63:	48 89 e5             	mov    %rsp,%rbp
    2d66:	48 83 ec 10          	sub    $0x10,%rsp
    2d6a:	48 89 7d f8          	mov    %rdi,-0x8(%rbp)
    2d6e:	48 8b 45 f8          	mov    -0x8(%rbp),%rax
    2d72:	48 89 c7             	mov    %rax,%rdi
    2d75:	e8 7e 03 00 00       	call   30f8 <_ZN9__gnu_cxx13new_allocatorINSt7__cxx1112basic_stringIcSt11char_traitsIcESaIcEEEEC1Ev>
    2d7a:	90                   	nop
    2d7b:	c9                   	leave  
    2d7c:	c3                   	ret    
    2d7d:	90                   	nop

0000000000002d7e <_ZNSt12_Vector_baseINSt7__cxx1112basic_stringIcSt11char_traitsIcESaIcEEESaIS5_EE17_Vector_impl_dataC1Ev>:
    2d7e:	f3 0f 1e fa          	endbr64 
    2d82:	55                   	push   %rbp
    2d83:	48 89 e5             	mov    %rsp,%rbp
    2d86:	48 89 7d f8          	mov    %rdi,-0x8(%rbp)
    2d8a:	48 8b 45 f8          	mov    -0x8(%rbp),%rax
    2d8e:	48 c7 00 00 00 00 00 	movq   $0x0,(%rax)
    2d95:	48 8b 45 f8          	mov    -0x8(%rbp),%rax
    2d99:	48 c7 40 08 00 00 00 	movq   $0x0,0x8(%rax)
    2da0:	00 
    2da1:	48 8b 45 f8          	mov    -0x8(%rbp),%rax
    2da5:	48 c7 40 10 00 00 00 	movq   $0x0,0x10(%rax)
    2dac:	00 
    2dad:	90                   	nop
    2dae:	5d                   	pop    %rbp
    2daf:	c3                   	ret    

0000000000002db0 <_ZN9__gnu_cxx13new_allocatorINSt7__cxx1112basic_stringIcSt11char_traitsIcESaIcEEEED1Ev>:
    2db0:	f3 0f 1e fa          	endbr64 
    2db4:	55                   	push   %rbp
    2db5:	48 89 e5             	mov    %rsp,%rbp
    2db8:	48 89 7d f8          	mov    %rdi,-0x8(%rbp)
    2dbc:	90                   	nop
    2dbd:	5d                   	pop    %rbp
    2dbe:	c3                   	ret    
    2dbf:	90                   	nop

0000000000002dc0 <_ZNSt12_Vector_baseINSt7__cxx1112basic_stringIcSt11char_traitsIcESaIcEEESaIS5_EE13_M_deallocateEPS5_m>:
    2dc0:	f3 0f 1e fa          	endbr64 
    2dc4:	55                   	push   %rbp
    2dc5:	48 89 e5             	mov    %rsp,%rbp
    2dc8:	48 83 ec 20          	sub    $0x20,%rsp
    2dcc:	48 89 7d f8          	mov    %rdi,-0x8(%rbp)
    2dd0:	48 89 75 f0          	mov    %rsi,-0x10(%rbp)
    2dd4:	48 89 55 e8          	mov    %rdx,-0x18(%rbp)
    2dd8:	48 83 7d f0 00       	cmpq   $0x0,-0x10(%rbp)
    2ddd:	74 17                	je     2df6 <_ZNSt12_Vector_baseINSt7__cxx1112basic_stringIcSt11char_traitsIcESaIcEEESaIS5_EE13_M_deallocateEPS5_m+0x36>
    2ddf:	48 8b 45 f8          	mov    -0x8(%rbp),%rax
    2de3:	48 8b 55 e8          	mov    -0x18(%rbp),%rdx
    2de7:	48 8b 4d f0          	mov    -0x10(%rbp),%rcx
    2deb:	48 89 ce             	mov    %rcx,%rsi
    2dee:	48 89 c7             	mov    %rax,%rdi
    2df1:	e8 11 03 00 00       	call   3107 <_ZNSt16allocator_traitsISaINSt7__cxx1112basic_stringIcSt11char_traitsIcESaIcEEEEE10deallocateERS6_PS5_m>
    2df6:	90                   	nop
    2df7:	c9                   	leave  
    2df8:	c3                   	ret    
    2df9:	90                   	nop

0000000000002dfa <_ZNSt12_Vector_baseINSt7__cxx1112basic_stringIcSt11char_traitsIcESaIcEEESaIS5_EE19_M_get_Tp_allocatorEv>:
    2dfa:	f3 0f 1e fa          	endbr64 
    2dfe:	55                   	push   %rbp
    2dff:	48 89 e5             	mov    %rsp,%rbp
    2e02:	48 89 7d f8          	mov    %rdi,-0x8(%rbp)
    2e06:	48 8b 45 f8          	mov    -0x8(%rbp),%rax
    2e0a:	5d                   	pop    %rbp
    2e0b:	c3                   	ret    

0000000000002e0c <_ZSt8_DestroyIPNSt7__cxx1112basic_stringIcSt11char_traitsIcESaIcEEES5_EvT_S7_RSaIT0_E>:
    2e0c:	f3 0f 1e fa          	endbr64 
    2e10:	55                   	push   %rbp
    2e11:	48 89 e5             	mov    %rsp,%rbp
    2e14:	48 83 ec 20          	sub    $0x20,%rsp
    2e18:	48 89 7d f8          	mov    %rdi,-0x8(%rbp)
    2e1c:	48 89 75 f0          	mov    %rsi,-0x10(%rbp)
    2e20:	48 89 55 e8          	mov    %rdx,-0x18(%rbp)
    2e24:	48 8b 55 f0          	mov    -0x10(%rbp),%rdx
    2e28:	48 8b 45 f8          	mov    -0x8(%rbp),%rax
    2e2c:	48 89 d6             	mov    %rdx,%rsi
    2e2f:	48 89 c7             	mov    %rax,%rdi
    2e32:	e8 02 03 00 00       	call   3139 <_ZSt8_DestroyIPNSt7__cxx1112basic_stringIcSt11char_traitsIcESaIcEEEEvT_S7_>
    2e37:	90                   	nop
    2e38:	c9                   	leave  
    2e39:	c3                   	ret    

0000000000002e3a <_ZNSt16allocator_traitsISaINSt7__cxx1112basic_stringIcSt11char_traitsIcESaIcEEEEE9constructIS5_JRKS5_EEEvRS6_PT_DpOT0_>:
    2e3a:	f3 0f 1e fa          	endbr64 
    2e3e:	55                   	push   %rbp
    2e3f:	48 89 e5             	mov    %rsp,%rbp
    2e42:	48 83 ec 20          	sub    $0x20,%rsp
    2e46:	48 89 7d f8          	mov    %rdi,-0x8(%rbp)
    2e4a:	48 89 75 f0          	mov    %rsi,-0x10(%rbp)
    2e4e:	48 89 55 e8          	mov    %rdx,-0x18(%rbp)
    2e52:	48 8b 45 e8          	mov    -0x18(%rbp),%rax
    2e56:	48 89 c7             	mov    %rax,%rdi
    2e59:	e8 05 03 00 00       	call   3163 <_ZSt7forwardIRKNSt7__cxx1112basic_stringIcSt11char_traitsIcESaIcEEEEOT_RNSt16remove_referenceIS8_E4typeE>
    2e5e:	48 89 c2             	mov    %rax,%rdx
    2e61:	48 8b 4d f0          	mov    -0x10(%rbp),%rcx
    2e65:	48 8b 45 f8          	mov    -0x8(%rbp),%rax
    2e69:	48 89 ce             	mov    %rcx,%rsi
    2e6c:	48 89 c7             	mov    %rax,%rdi
    2e6f:	e8 02 03 00 00       	call   3176 <_ZN9__gnu_cxx13new_allocatorINSt7__cxx1112basic_stringIcSt11char_traitsIcESaIcEEEE9constructIS6_JRKS6_EEEvPT_DpOT0_>
    2e74:	90                   	nop
    2e75:	c9                   	leave  
    2e76:	c3                   	ret    
    2e77:	90                   	nop

0000000000002e78 <_ZNSt6vectorINSt7__cxx1112basic_stringIcSt11char_traitsIcESaIcEEESaIS5_EE17_M_realloc_insertIJRKS5_EEEvN9__gnu_cxx17__normal_iteratorIPS5_S7_EEDpOT_>:
    2e78:	f3 0f 1e fa          	endbr64 
    2e7c:	55                   	push   %rbp
    2e7d:	48 89 e5             	mov    %rsp,%rbp
    2e80:	53                   	push   %rbx
    2e81:	48 83 ec 68          	sub    $0x68,%rsp
    2e85:	48 89 7d a8          	mov    %rdi,-0x58(%rbp)
    2e89:	48 89 75 a0          	mov    %rsi,-0x60(%rbp)
    2e8d:	48 89 55 98          	mov    %rdx,-0x68(%rbp)
    2e91:	64 48 8b 04 25 28 00 	mov    %fs:0x28,%rax
    2e98:	00 00 
    2e9a:	48 89 45 e8          	mov    %rax,-0x18(%rbp)
    2e9e:	31 c0                	xor    %eax,%eax
    2ea0:	48 8b 45 a8          	mov    -0x58(%rbp),%rax
    2ea4:	48 8d 15 5b 11 00 00 	lea    0x115b(%rip),%rdx        # 4006 <_IO_stdin_used+0x6>
    2eab:	be 01 00 00 00       	mov    $0x1,%esi
    2eb0:	48 89 c7             	mov    %rax,%rdi
    2eb3:	e8 34 03 00 00       	call   31ec <_ZNKSt6vectorINSt7__cxx1112basic_stringIcSt11char_traitsIcESaIcEEESaIS5_EE12_M_check_lenEmPKc>
    2eb8:	48 89 45 b8          	mov    %rax,-0x48(%rbp)
    2ebc:	48 8b 45 a8          	mov    -0x58(%rbp),%rax
    2ec0:	48 8b 00             	mov    (%rax),%rax
    2ec3:	48 89 45 c0          	mov    %rax,-0x40(%rbp)
    2ec7:	48 8b 45 a8          	mov    -0x58(%rbp),%rax
    2ecb:	48 8b 40 08          	mov    0x8(%rax),%rax
    2ecf:	48 89 45 c8          	mov    %rax,-0x38(%rbp)
    2ed3:	48 8b 45 a8          	mov    -0x58(%rbp),%rax
    2ed7:	48 89 c7             	mov    %rax,%rdi
    2eda:	e8 57 fd ff ff       	call   2c36 <_ZNSt6vectorINSt7__cxx1112basic_stringIcSt11char_traitsIcESaIcEEESaIS5_EE5beginEv>
    2edf:	48 89 45 b0          	mov    %rax,-0x50(%rbp)
    2ee3:	48 8d 55 b0          	lea    -0x50(%rbp),%rdx
    2ee7:	48 8d 45 a0          	lea    -0x60(%rbp),%rax
    2eeb:	48 89 d6             	mov    %rdx,%rsi
    2eee:	48 89 c7             	mov    %rax,%rdi
    2ef1:	e8 e5 03 00 00       	call   32db <_ZN9__gnu_cxxmiIPNSt7__cxx1112basic_stringIcSt11char_traitsIcESaIcEEESt6vectorIS6_SaIS6_EEEENS_17__normal_iteratorIT_T0_E15difference_typeERKSE_SH_>
    2ef6:	48 89 45 d0          	mov    %rax,-0x30(%rbp)
    2efa:	48 8b 45 a8          	mov    -0x58(%rbp),%rax
    2efe:	48 8b 55 b8          	mov    -0x48(%rbp),%rdx
    2f02:	48 89 d6             	mov    %rdx,%rsi
    2f05:	48 89 c7             	mov    %rax,%rdi
    2f08:	e8 11 04 00 00       	call   331e <_ZNSt12_Vector_baseINSt7__cxx1112basic_stringIcSt11char_traitsIcESaIcEEESaIS5_EE11_M_allocateEm>
    2f0d:	48 89 45 d8          	mov    %rax,-0x28(%rbp)
    2f11:	48 8b 45 d8          	mov    -0x28(%rbp),%rax
    2f15:	48 89 45 e0          	mov    %rax,-0x20(%rbp)
    2f19:	48 8b 45 98          	mov    -0x68(%rbp),%rax
    2f1d:	48 89 c7             	mov    %rax,%rdi
    2f20:	e8 3e 02 00 00       	call   3163 <_ZSt7forwardIRKNSt7__cxx1112basic_stringIcSt11char_traitsIcESaIcEEEEOT_RNSt16remove_referenceIS8_E4typeE>
    2f25:	48 89 c2             	mov    %rax,%rdx
    2f28:	48 8b 45 d0          	mov    -0x30(%rbp),%rax
    2f2c:	48 c1 e0 05          	shl    $0x5,%rax
    2f30:	48 89 c1             	mov    %rax,%rcx
    2f33:	48 8b 45 d8          	mov    -0x28(%rbp),%rax
    2f37:	48 01 c1             	add    %rax,%rcx
    2f3a:	48 8b 45 a8          	mov    -0x58(%rbp),%rax
    2f3e:	48 89 ce             	mov    %rcx,%rsi
    2f41:	48 89 c7             	mov    %rax,%rdi
    2f44:	e8 f1 fe ff ff       	call   2e3a <_ZNSt16allocator_traitsISaINSt7__cxx1112basic_stringIcSt11char_traitsIcESaIcEEEEE9constructIS5_JRKS5_EEEvRS6_PT_DpOT0_>
    2f49:	48 c7 45 e0 00 00 00 	movq   $0x0,-0x20(%rbp)
    2f50:	00 
    2f51:	48 8b 45 a8          	mov    -0x58(%rbp),%rax
    2f55:	48 89 c7             	mov    %rax,%rdi
    2f58:	e8 9d fe ff ff       	call   2dfa <_ZNSt12_Vector_baseINSt7__cxx1112basic_stringIcSt11char_traitsIcESaIcEEESaIS5_EE19_M_get_Tp_allocatorEv>
    2f5d:	48 89 c3             	mov    %rax,%rbx
    2f60:	48 8d 45 a0          	lea    -0x60(%rbp),%rax
    2f64:	48 89 c7             	mov    %rax,%rdi
    2f67:	e8 7a 01 00 00       	call   30e6 <_ZNK9__gnu_cxx17__normal_iteratorIPNSt7__cxx1112basic_stringIcSt11char_traitsIcESaIcEEESt6vectorIS6_SaIS6_EEE4baseEv>
    2f6c:	48 8b 30             	mov    (%rax),%rsi
    2f6f:	48 8b 55 d8          	mov    -0x28(%rbp),%rdx
    2f73:	48 8b 45 c0          	mov    -0x40(%rbp),%rax
    2f77:	48 89 d9             	mov    %rbx,%rcx
    2f7a:	48 89 c7             	mov    %rax,%rdi
    2f7d:	e8 d3 03 00 00       	call   3355 <_ZNSt6vectorINSt7__cxx1112basic_stringIcSt11char_traitsIcESaIcEEESaIS5_EE11_S_relocateEPS5_S8_S8_RS6_>
    2f82:	48 89 45 e0          	mov    %rax,-0x20(%rbp)
    2f86:	48 83 45 e0 20       	addq   $0x20,-0x20(%rbp)
    2f8b:	48 8b 45 a8          	mov    -0x58(%rbp),%rax
    2f8f:	48 89 c7             	mov    %rax,%rdi
    2f92:	e8 63 fe ff ff       	call   2dfa <_ZNSt12_Vector_baseINSt7__cxx1112basic_stringIcSt11char_traitsIcESaIcEEESaIS5_EE19_M_get_Tp_allocatorEv>
    2f97:	48 89 c3             	mov    %rax,%rbx
    2f9a:	48 8d 45 a0          	lea    -0x60(%rbp),%rax
    2f9e:	48 89 c7             	mov    %rax,%rdi
    2fa1:	e8 40 01 00 00       	call   30e6 <_ZNK9__gnu_cxx17__normal_iteratorIPNSt7__cxx1112basic_stringIcSt11char_traitsIcESaIcEEESt6vectorIS6_SaIS6_EEE4baseEv>
    2fa6:	48 8b 00             	mov    (%rax),%rax
    2fa9:	48 8b 55 e0          	mov    -0x20(%rbp),%rdx
    2fad:	48 8b 75 c8          	mov    -0x38(%rbp),%rsi
    2fb1:	48 89 d9             	mov    %rbx,%rcx
    2fb4:	48 89 c7             	mov    %rax,%rdi
    2fb7:	e8 99 03 00 00       	call   3355 <_ZNSt6vectorINSt7__cxx1112basic_stringIcSt11char_traitsIcESaIcEEESaIS5_EE11_S_relocateEPS5_S8_S8_RS6_>
    2fbc:	48 89 45 e0          	mov    %rax,-0x20(%rbp)
    2fc0:	48 8b 45 a8          	mov    -0x58(%rbp),%rax
    2fc4:	48 8b 55 a8          	mov    -0x58(%rbp),%rdx
    2fc8:	48 8b 52 10          	mov    0x10(%rdx),%rdx
    2fcc:	48 2b 55 c0          	sub    -0x40(%rbp),%rdx
    2fd0:	48 c1 fa 05          	sar    $0x5,%rdx
    2fd4:	48 8b 4d c0          	mov    -0x40(%rbp),%rcx
    2fd8:	48 89 ce             	mov    %rcx,%rsi
    2fdb:	48 89 c7             	mov    %rax,%rdi
    2fde:	e8 dd fd ff ff       	call   2dc0 <_ZNSt12_Vector_baseINSt7__cxx1112basic_stringIcSt11char_traitsIcESaIcEEESaIS5_EE13_M_deallocateEPS5_m>
    2fe3:	48 8b 45 a8          	mov    -0x58(%rbp),%rax
    2fe7:	48 8b 55 d8          	mov    -0x28(%rbp),%rdx
    2feb:	48 89 10             	mov    %rdx,(%rax)
    2fee:	48 8b 45 a8          	mov    -0x58(%rbp),%rax
    2ff2:	48 8b 55 e0          	mov    -0x20(%rbp),%rdx
    2ff6:	48 89 50 08          	mov    %rdx,0x8(%rax)
    2ffa:	48 8b 45 b8          	mov    -0x48(%rbp),%rax
    2ffe:	48 c1 e0 05          	shl    $0x5,%rax
    3002:	48 89 c2             	mov    %rax,%rdx
    3005:	48 8b 45 d8          	mov    -0x28(%rbp),%rax
    3009:	48 01 c2             	add    %rax,%rdx
    300c:	48 8b 45 a8          	mov    -0x58(%rbp),%rax
    3010:	48 89 50 10          	mov    %rdx,0x10(%rax)
    3014:	90                   	nop
    3015:	48 8b 45 e8          	mov    -0x18(%rbp),%rax
    3019:	64 48 2b 04 25 28 00 	sub    %fs:0x28,%rax
    3020:	00 00 
    3022:	0f 84 95 00 00 00    	je     30bd <_ZNSt6vectorINSt7__cxx1112basic_stringIcSt11char_traitsIcESaIcEEESaIS5_EE17_M_realloc_insertIJRKS5_EEEvN9__gnu_cxx17__normal_iteratorIPS5_S7_EEDpOT_+0x245>
    3028:	e9 8b 00 00 00       	jmp    30b8 <_ZNSt6vectorINSt7__cxx1112basic_stringIcSt11char_traitsIcESaIcEEESaIS5_EE17_M_realloc_insertIJRKS5_EEEvN9__gnu_cxx17__normal_iteratorIPS5_S7_EEDpOT_+0x240>
    302d:	f3 0f 1e fa          	endbr64 
    3031:	48 89 c7             	mov    %rax,%rdi
    3034:	e8 e7 f1 ff ff       	call   2220 <__cxa_begin_catch@plt>
    3039:	48 83 7d e0 00       	cmpq   $0x0,-0x20(%rbp)
    303e:	75 23                	jne    3063 <_ZNSt6vectorINSt7__cxx1112basic_stringIcSt11char_traitsIcESaIcEEESaIS5_EE17_M_realloc_insertIJRKS5_EEEvN9__gnu_cxx17__normal_iteratorIPS5_S7_EEDpOT_+0x1eb>
    3040:	48 8b 45 d0          	mov    -0x30(%rbp),%rax
    3044:	48 c1 e0 05          	shl    $0x5,%rax
    3048:	48 89 c2             	mov    %rax,%rdx
    304b:	48 8b 45 d8          	mov    -0x28(%rbp),%rax
    304f:	48 01 c2             	add    %rax,%rdx
    3052:	48 8b 45 a8          	mov    -0x58(%rbp),%rax
    3056:	48 89 d6             	mov    %rdx,%rsi
    3059:	48 89 c7             	mov    %rax,%rdi
    305c:	e8 2a 03 00 00       	call   338b <_ZNSt16allocator_traitsISaINSt7__cxx1112basic_stringIcSt11char_traitsIcESaIcEEEEE7destroyIS5_EEvRS6_PT_>
    3061:	eb 22                	jmp    3085 <_ZNSt6vectorINSt7__cxx1112basic_stringIcSt11char_traitsIcESaIcEEESaIS5_EE17_M_realloc_insertIJRKS5_EEEvN9__gnu_cxx17__normal_iteratorIPS5_S7_EEDpOT_+0x20d>
    3063:	48 8b 45 a8          	mov    -0x58(%rbp),%rax
    3067:	48 89 c7             	mov    %rax,%rdi
    306a:	e8 8b fd ff ff       	call   2dfa <_ZNSt12_Vector_baseINSt7__cxx1112basic_stringIcSt11char_traitsIcESaIcEEESaIS5_EE19_M_get_Tp_allocatorEv>
    306f:	48 89 c2             	mov    %rax,%rdx
    3072:	48 8b 4d e0          	mov    -0x20(%rbp),%rcx
    3076:	48 8b 45 d8          	mov    -0x28(%rbp),%rax
    307a:	48 89 ce             	mov    %rcx,%rsi
    307d:	48 89 c7             	mov    %rax,%rdi
    3080:	e8 87 fd ff ff       	call   2e0c <_ZSt8_DestroyIPNSt7__cxx1112basic_stringIcSt11char_traitsIcESaIcEEES5_EvT_S7_RSaIT0_E>
    3085:	48 8b 45 a8          	mov    -0x58(%rbp),%rax
    3089:	48 8b 55 b8          	mov    -0x48(%rbp),%rdx
    308d:	48 8b 4d d8          	mov    -0x28(%rbp),%rcx
    3091:	48 89 ce             	mov    %rcx,%rsi
    3094:	48 89 c7             	mov    %rax,%rdi
    3097:	e8 24 fd ff ff       	call   2dc0 <_ZNSt12_Vector_baseINSt7__cxx1112basic_stringIcSt11char_traitsIcESaIcEEESaIS5_EE13_M_deallocateEPS5_m>
    309c:	e8 7f f2 ff ff       	call   2320 <__cxa_rethrow@plt>
    30a1:	f3 0f 1e fa          	endbr64 
    30a5:	48 89 c3             	mov    %rax,%rbx
    30a8:	e8 a3 f2 ff ff       	call   2350 <__cxa_end_catch@plt>
    30ad:	48 89 d8             	mov    %rbx,%rax
    30b0:	48 89 c7             	mov    %rax,%rdi
    30b3:	e8 a8 f2 ff ff       	call   2360 <_Unwind_Resume@plt>
    30b8:	e8 23 f2 ff ff       	call   22e0 <__stack_chk_fail@plt>
    30bd:	48 8b 5d f8          	mov    -0x8(%rbp),%rbx
    30c1:	c9                   	leave  
    30c2:	c3                   	ret    
    30c3:	90                   	nop

00000000000030c4 <_ZN9__gnu_cxx17__normal_iteratorIPNSt7__cxx1112basic_stringIcSt11char_traitsIcESaIcEEESt6vectorIS6_SaIS6_EEEC1ERKS7_>:
    30c4:	f3 0f 1e fa          	endbr64 
    30c8:	55                   	push   %rbp
    30c9:	48 89 e5             	mov    %rsp,%rbp
    30cc:	48 89 7d f8          	mov    %rdi,-0x8(%rbp)
    30d0:	48 89 75 f0          	mov    %rsi,-0x10(%rbp)
    30d4:	48 8b 45 f0          	mov    -0x10(%rbp),%rax
    30d8:	48 8b 10             	mov    (%rax),%rdx
    30db:	48 8b 45 f8          	mov    -0x8(%rbp),%rax
    30df:	48 89 10             	mov    %rdx,(%rax)
    30e2:	90                   	nop
    30e3:	5d                   	pop    %rbp
    30e4:	c3                   	ret    
    30e5:	90                   	nop

00000000000030e6 <_ZNK9__gnu_cxx17__normal_iteratorIPNSt7__cxx1112basic_stringIcSt11char_traitsIcESaIcEEESt6vectorIS6_SaIS6_EEE4baseEv>:
    30e6:	f3 0f 1e fa          	endbr64 
    30ea:	55                   	push   %rbp
    30eb:	48 89 e5             	mov    %rsp,%rbp
    30ee:	48 89 7d f8          	mov    %rdi,-0x8(%rbp)
    30f2:	48 8b 45 f8          	mov    -0x8(%rbp),%rax
    30f6:	5d                   	pop    %rbp
    30f7:	c3                   	ret    

00000000000030f8 <_ZN9__gnu_cxx13new_allocatorINSt7__cxx1112basic_stringIcSt11char_traitsIcESaIcEEEEC1Ev>:
    30f8:	f3 0f 1e fa          	endbr64 
    30fc:	55                   	push   %rbp
    30fd:	48 89 e5             	mov    %rsp,%rbp
    3100:	48 89 7d f8          	mov    %rdi,-0x8(%rbp)
    3104:	90                   	nop
    3105:	5d                   	pop    %rbp
    3106:	c3                   	ret    

0000000000003107 <_ZNSt16allocator_traitsISaINSt7__cxx1112basic_stringIcSt11char_traitsIcESaIcEEEEE10deallocateERS6_PS5_m>:
    3107:	f3 0f 1e fa          	endbr64 
    310b:	55                   	push   %rbp
    310c:	48 89 e5             	mov    %rsp,%rbp
    310f:	48 83 ec 20          	sub    $0x20,%rsp
    3113:	48 89 7d f8          	mov    %rdi,-0x8(%rbp)
    3117:	48 89 75 f0          	mov    %rsi,-0x10(%rbp)
    311b:	48 89 55 e8          	mov    %rdx,-0x18(%rbp)
    311f:	48 8b 55 e8          	mov    -0x18(%rbp),%rdx
    3123:	48 8b 4d f0          	mov    -0x10(%rbp),%rcx
    3127:	48 8b 45 f8          	mov    -0x8(%rbp),%rax
    312b:	48 89 ce             	mov    %rcx,%rsi
    312e:	48 89 c7             	mov    %rax,%rdi
    3131:	e8 80 02 00 00       	call   33b6 <_ZN9__gnu_cxx13new_allocatorINSt7__cxx1112basic_stringIcSt11char_traitsIcESaIcEEEE10deallocateEPS6_m>
    3136:	90                   	nop
    3137:	c9                   	leave  
    3138:	c3                   	ret    

0000000000003139 <_ZSt8_DestroyIPNSt7__cxx1112basic_stringIcSt11char_traitsIcESaIcEEEEvT_S7_>:
    3139:	f3 0f 1e fa          	endbr64 
    313d:	55                   	push   %rbp
    313e:	48 89 e5             	mov    %rsp,%rbp
    3141:	48 83 ec 10          	sub    $0x10,%rsp
    3145:	48 89 7d f8          	mov    %rdi,-0x8(%rbp)
    3149:	48 89 75 f0          	mov    %rsi,-0x10(%rbp)
    314d:	48 8b 55 f0          	mov    -0x10(%rbp),%rdx
    3151:	48 8b 45 f8          	mov    -0x8(%rbp),%rax
    3155:	48 89 d6             	mov    %rdx,%rsi
    3158:	48 89 c7             	mov    %rax,%rdi
    315b:	e8 8a 02 00 00       	call   33ea <_ZNSt12_Destroy_auxILb0EE9__destroyIPNSt7__cxx1112basic_stringIcSt11char_traitsIcESaIcEEEEEvT_S9_>
    3160:	90                   	nop
    3161:	c9                   	leave  
    3162:	c3                   	ret    

0000000000003163 <_ZSt7forwardIRKNSt7__cxx1112basic_stringIcSt11char_traitsIcESaIcEEEEOT_RNSt16remove_referenceIS8_E4typeE>:
    3163:	f3 0f 1e fa          	endbr64 
    3167:	55                   	push   %rbp
    3168:	48 89 e5             	mov    %rsp,%rbp
    316b:	48 89 7d f8          	mov    %rdi,-0x8(%rbp)
    316f:	48 8b 45 f8          	mov    -0x8(%rbp),%rax
    3173:	5d                   	pop    %rbp
    3174:	c3                   	ret    
    3175:	90                   	nop

0000000000003176 <_ZN9__gnu_cxx13new_allocatorINSt7__cxx1112basic_stringIcSt11char_traitsIcESaIcEEEE9constructIS6_JRKS6_EEEvPT_DpOT0_>:
    3176:	f3 0f 1e fa          	endbr64 
    317a:	55                   	push   %rbp
    317b:	48 89 e5             	mov    %rsp,%rbp
    317e:	41 55                	push   %r13
    3180:	41 54                	push   %r12
    3182:	53                   	push   %rbx
    3183:	48 83 ec 28          	sub    $0x28,%rsp
    3187:	48 89 7d d8          	mov    %rdi,-0x28(%rbp)
    318b:	48 89 75 d0          	mov    %rsi,-0x30(%rbp)
    318f:	48 89 55 c8          	mov    %rdx,-0x38(%rbp)
    3193:	48 8b 45 c8          	mov    -0x38(%rbp),%rax
    3197:	48 89 c7             	mov    %rax,%rdi
    319a:	e8 c4 ff ff ff       	call   3163 <_ZSt7forwardIRKNSt7__cxx1112basic_stringIcSt11char_traitsIcESaIcEEEEOT_RNSt16remove_referenceIS8_E4typeE>
    319f:	49 89 c5             	mov    %rax,%r13
    31a2:	48 8b 5d d0          	mov    -0x30(%rbp),%rbx
    31a6:	48 89 de             	mov    %rbx,%rsi
    31a9:	bf 20 00 00 00       	mov    $0x20,%edi
    31ae:	e8 6b f7 ff ff       	call   291e <_ZnwmPv>
    31b3:	49 89 c4             	mov    %rax,%r12
    31b6:	4c 89 ee             	mov    %r13,%rsi
    31b9:	4c 89 e7             	mov    %r12,%rdi
    31bc:	e8 6f f0 ff ff       	call   2230 <_ZNSt7__cxx1112basic_stringIcSt11char_traitsIcESaIcEEC1ERKS4_@plt>
    31c1:	eb 1d                	jmp    31e0 <_ZN9__gnu_cxx13new_allocatorINSt7__cxx1112basic_stringIcSt11char_traitsIcESaIcEEEE9constructIS6_JRKS6_EEEvPT_DpOT0_+0x6a>
    31c3:	f3 0f 1e fa          	endbr64 
    31c7:	49 89 c5             	mov    %rax,%r13
    31ca:	48 89 de             	mov    %rbx,%rsi
    31cd:	4c 89 e7             	mov    %r12,%rdi
    31d0:	e8 5f f7 ff ff       	call   2934 <_ZdlPvS_>
    31d5:	4c 89 e8             	mov    %r13,%rax
    31d8:	48 89 c7             	mov    %rax,%rdi
    31db:	e8 80 f1 ff ff       	call   2360 <_Unwind_Resume@plt>
    31e0:	48 83 c4 28          	add    $0x28,%rsp
    31e4:	5b                   	pop    %rbx
    31e5:	41 5c                	pop    %r12
    31e7:	41 5d                	pop    %r13
    31e9:	5d                   	pop    %rbp
    31ea:	c3                   	ret    
    31eb:	90                   	nop

00000000000031ec <_ZNKSt6vectorINSt7__cxx1112basic_stringIcSt11char_traitsIcESaIcEEESaIS5_EE12_M_check_lenEmPKc>:
    31ec:	f3 0f 1e fa          	endbr64 
    31f0:	55                   	push   %rbp
    31f1:	48 89 e5             	mov    %rsp,%rbp
    31f4:	53                   	push   %rbx
    31f5:	48 83 ec 48          	sub    $0x48,%rsp
    31f9:	48 89 7d c8          	mov    %rdi,-0x38(%rbp)
    31fd:	48 89 75 c0          	mov    %rsi,-0x40(%rbp)
    3201:	48 89 55 b8          	mov    %rdx,-0x48(%rbp)
    3205:	64 48 8b 04 25 28 00 	mov    %fs:0x28,%rax
    320c:	00 00 
    320e:	48 89 45 e8          	mov    %rax,-0x18(%rbp)
    3212:	31 c0                	xor    %eax,%eax
    3214:	48 8b 45 c8          	mov    -0x38(%rbp),%rax
    3218:	48 89 c7             	mov    %rax,%rdi
    321b:	e8 08 02 00 00       	call   3428 <_ZNKSt6vectorINSt7__cxx1112basic_stringIcSt11char_traitsIcESaIcEEESaIS5_EE8max_sizeEv>
    3220:	48 89 c3             	mov    %rax,%rbx
    3223:	48 8b 45 c8          	mov    -0x38(%rbp),%rax
    3227:	48 89 c7             	mov    %rax,%rdi
    322a:	e8 5d f9 ff ff       	call   2b8c <_ZNKSt6vectorINSt7__cxx1112basic_stringIcSt11char_traitsIcESaIcEEESaIS5_EE4sizeEv>
    322f:	48 29 c3             	sub    %rax,%rbx
    3232:	48 89 da             	mov    %rbx,%rdx
    3235:	48 8b 45 c0          	mov    -0x40(%rbp),%rax
    3239:	48 39 c2             	cmp    %rax,%rdx
    323c:	0f 92 c0             	setb   %al
    323f:	84 c0                	test   %al,%al
    3241:	74 0c                	je     324f <_ZNKSt6vectorINSt7__cxx1112basic_stringIcSt11char_traitsIcESaIcEEESaIS5_EE12_M_check_lenEmPKc+0x63>
    3243:	48 8b 45 b8          	mov    -0x48(%rbp),%rax
    3247:	48 89 c7             	mov    %rax,%rdi
    324a:	e8 f1 ef ff ff       	call   2240 <_ZSt20__throw_length_errorPKc@plt>
    324f:	48 8b 45 c8          	mov    -0x38(%rbp),%rax
    3253:	48 89 c7             	mov    %rax,%rdi
    3256:	e8 31 f9 ff ff       	call   2b8c <_ZNKSt6vectorINSt7__cxx1112basic_stringIcSt11char_traitsIcESaIcEEESaIS5_EE4sizeEv>
    325b:	48 89 c3             	mov    %rax,%rbx
    325e:	48 8b 45 c8          	mov    -0x38(%rbp),%rax
    3262:	48 89 c7             	mov    %rax,%rdi
    3265:	e8 22 f9 ff ff       	call   2b8c <_ZNKSt6vectorINSt7__cxx1112basic_stringIcSt11char_traitsIcESaIcEEESaIS5_EE4sizeEv>
    326a:	48 89 45 d8          	mov    %rax,-0x28(%rbp)
    326e:	48 8d 55 c0          	lea    -0x40(%rbp),%rdx
    3272:	48 8d 45 d8          	lea    -0x28(%rbp),%rax
    3276:	48 89 d6             	mov    %rdx,%rsi
    3279:	48 89 c7             	mov    %rax,%rdi
    327c:	e8 cd 01 00 00       	call   344e <_ZSt3maxImERKT_S2_S2_>
    3281:	48 8b 00             	mov    (%rax),%rax
    3284:	48 01 d8             	add    %rbx,%rax
    3287:	48 89 45 e0          	mov    %rax,-0x20(%rbp)
    328b:	48 8b 45 c8          	mov    -0x38(%rbp),%rax
    328f:	48 89 c7             	mov    %rax,%rdi
    3292:	e8 f5 f8 ff ff       	call   2b8c <_ZNKSt6vectorINSt7__cxx1112basic_stringIcSt11char_traitsIcESaIcEEESaIS5_EE4sizeEv>
    3297:	48 39 45 e0          	cmp    %rax,-0x20(%rbp)
    329b:	72 12                	jb     32af <_ZNKSt6vectorINSt7__cxx1112basic_stringIcSt11char_traitsIcESaIcEEESaIS5_EE12_M_check_lenEmPKc+0xc3>
    329d:	48 8b 45 c8          	mov    -0x38(%rbp),%rax
    32a1:	48 89 c7             	mov    %rax,%rdi
    32a4:	e8 7f 01 00 00       	call   3428 <_ZNKSt6vectorINSt7__cxx1112basic_stringIcSt11char_traitsIcESaIcEEESaIS5_EE8max_sizeEv>
    32a9:	48 39 45 e0          	cmp    %rax,-0x20(%rbp)
    32ad:	76 0e                	jbe    32bd <_ZNKSt6vectorINSt7__cxx1112basic_stringIcSt11char_traitsIcESaIcEEESaIS5_EE12_M_check_lenEmPKc+0xd1>
    32af:	48 8b 45 c8          	mov    -0x38(%rbp),%rax
    32b3:	48 89 c7             	mov    %rax,%rdi
    32b6:	e8 6d 01 00 00       	call   3428 <_ZNKSt6vectorINSt7__cxx1112basic_stringIcSt11char_traitsIcESaIcEEESaIS5_EE8max_sizeEv>
    32bb:	eb 04                	jmp    32c1 <_ZNKSt6vectorINSt7__cxx1112basic_stringIcSt11char_traitsIcESaIcEEESaIS5_EE12_M_check_lenEmPKc+0xd5>
    32bd:	48 8b 45 e0          	mov    -0x20(%rbp),%rax
    32c1:	48 8b 55 e8          	mov    -0x18(%rbp),%rdx
    32c5:	64 48 2b 14 25 28 00 	sub    %fs:0x28,%rdx
    32cc:	00 00 
    32ce:	74 05                	je     32d5 <_ZNKSt6vectorINSt7__cxx1112basic_stringIcSt11char_traitsIcESaIcEEESaIS5_EE12_M_check_lenEmPKc+0xe9>
    32d0:	e8 0b f0 ff ff       	call   22e0 <__stack_chk_fail@plt>
    32d5:	48 8b 5d f8          	mov    -0x8(%rbp),%rbx
    32d9:	c9                   	leave  
    32da:	c3                   	ret    

00000000000032db <_ZN9__gnu_cxxmiIPNSt7__cxx1112basic_stringIcSt11char_traitsIcESaIcEEESt6vectorIS6_SaIS6_EEEENS_17__normal_iteratorIT_T0_E15difference_typeERKSE_SH_>:
    32db:	f3 0f 1e fa          	endbr64 
    32df:	55                   	push   %rbp
    32e0:	48 89 e5             	mov    %rsp,%rbp
    32e3:	53                   	push   %rbx
    32e4:	48 83 ec 18          	sub    $0x18,%rsp
    32e8:	48 89 7d e8          	mov    %rdi,-0x18(%rbp)
    32ec:	48 89 75 e0          	mov    %rsi,-0x20(%rbp)
    32f0:	48 8b 45 e8          	mov    -0x18(%rbp),%rax
    32f4:	48 89 c7             	mov    %rax,%rdi
    32f7:	e8 ea fd ff ff       	call   30e6 <_ZNK9__gnu_cxx17__normal_iteratorIPNSt7__cxx1112basic_stringIcSt11char_traitsIcESaIcEEESt6vectorIS6_SaIS6_EEE4baseEv>
    32fc:	48 8b 18             	mov    (%rax),%rbx
    32ff:	48 8b 45 e0          	mov    -0x20(%rbp),%rax
    3303:	48 89 c7             	mov    %rax,%rdi
    3306:	e8 db fd ff ff       	call   30e6 <_ZNK9__gnu_cxx17__normal_iteratorIPNSt7__cxx1112basic_stringIcSt11char_traitsIcESaIcEEESt6vectorIS6_SaIS6_EEE4baseEv>
    330b:	48 8b 10             	mov    (%rax),%rdx
    330e:	48 89 d8             	mov    %rbx,%rax
    3311:	48 29 d0             	sub    %rdx,%rax
    3314:	48 c1 f8 05          	sar    $0x5,%rax
    3318:	48 8b 5d f8          	mov    -0x8(%rbp),%rbx
    331c:	c9                   	leave  
    331d:	c3                   	ret    

000000000000331e <_ZNSt12_Vector_baseINSt7__cxx1112basic_stringIcSt11char_traitsIcESaIcEEESaIS5_EE11_M_allocateEm>:
    331e:	f3 0f 1e fa          	endbr64 
    3322:	55                   	push   %rbp
    3323:	48 89 e5             	mov    %rsp,%rbp
    3326:	48 83 ec 10          	sub    $0x10,%rsp
    332a:	48 89 7d f8          	mov    %rdi,-0x8(%rbp)
    332e:	48 89 75 f0          	mov    %rsi,-0x10(%rbp)
    3332:	48 83 7d f0 00       	cmpq   $0x0,-0x10(%rbp)
    3337:	74 15                	je     334e <_ZNSt12_Vector_baseINSt7__cxx1112basic_stringIcSt11char_traitsIcESaIcEEESaIS5_EE11_M_allocateEm+0x30>
    3339:	48 8b 45 f8          	mov    -0x8(%rbp),%rax
    333d:	48 8b 55 f0          	mov    -0x10(%rbp),%rdx
    3341:	48 89 d6             	mov    %rdx,%rsi
    3344:	48 89 c7             	mov    %rax,%rdi
    3347:	e8 31 01 00 00       	call   347d <_ZNSt16allocator_traitsISaINSt7__cxx1112basic_stringIcSt11char_traitsIcESaIcEEEEE8allocateERS6_m>
    334c:	eb 05                	jmp    3353 <_ZNSt12_Vector_baseINSt7__cxx1112basic_stringIcSt11char_traitsIcESaIcEEESaIS5_EE11_M_allocateEm+0x35>
    334e:	b8 00 00 00 00       	mov    $0x0,%eax
    3353:	c9                   	leave  
    3354:	c3                   	ret    

0000000000003355 <_ZNSt6vectorINSt7__cxx1112basic_stringIcSt11char_traitsIcESaIcEEESaIS5_EE11_S_relocateEPS5_S8_S8_RS6_>:
    3355:	f3 0f 1e fa          	endbr64 
    3359:	55                   	push   %rbp
    335a:	48 89 e5             	mov    %rsp,%rbp
    335d:	48 83 ec 20          	sub    $0x20,%rsp
    3361:	48 89 7d f8          	mov    %rdi,-0x8(%rbp)
    3365:	48 89 75 f0          	mov    %rsi,-0x10(%rbp)
    3369:	48 89 55 e8          	mov    %rdx,-0x18(%rbp)
    336d:	48 89 4d e0          	mov    %rcx,-0x20(%rbp)
    3371:	48 8b 4d e0          	mov    -0x20(%rbp),%rcx
    3375:	48 8b 55 e8          	mov    -0x18(%rbp),%rdx
    3379:	48 8b 75 f0          	mov    -0x10(%rbp),%rsi
    337d:	48 8b 45 f8          	mov    -0x8(%rbp),%rax
    3381:	48 89 c7             	mov    %rax,%rdi
    3384:	e8 22 01 00 00       	call   34ab <_ZNSt6vectorINSt7__cxx1112basic_stringIcSt11char_traitsIcESaIcEEESaIS5_EE14_S_do_relocateEPS5_S8_S8_RS6_St17integral_constantIbLb1EE>
    3389:	c9                   	leave  
    338a:	c3                   	ret    

000000000000338b <_ZNSt16allocator_traitsISaINSt7__cxx1112basic_stringIcSt11char_traitsIcESaIcEEEEE7destroyIS5_EEvRS6_PT_>:
    338b:	f3 0f 1e fa          	endbr64 
    338f:	55                   	push   %rbp
    3390:	48 89 e5             	mov    %rsp,%rbp
    3393:	48 83 ec 10          	sub    $0x10,%rsp
    3397:	48 89 7d f8          	mov    %rdi,-0x8(%rbp)
    339b:	48 89 75 f0          	mov    %rsi,-0x10(%rbp)
    339f:	48 8b 55 f0          	mov    -0x10(%rbp),%rdx
    33a3:	48 8b 45 f8          	mov    -0x8(%rbp),%rax
    33a7:	48 89 d6             	mov    %rdx,%rsi
    33aa:	48 89 c7             	mov    %rax,%rdi
    33ad:	e8 30 01 00 00       	call   34e2 <_ZN9__gnu_cxx13new_allocatorINSt7__cxx1112basic_stringIcSt11char_traitsIcESaIcEEEE7destroyIS6_EEvPT_>
    33b2:	90                   	nop
    33b3:	c9                   	leave  
    33b4:	c3                   	ret    
    33b5:	90                   	nop

00000000000033b6 <_ZN9__gnu_cxx13new_allocatorINSt7__cxx1112basic_stringIcSt11char_traitsIcESaIcEEEE10deallocateEPS6_m>:
    33b6:	f3 0f 1e fa          	endbr64 
    33ba:	55                   	push   %rbp
    33bb:	48 89 e5             	mov    %rsp,%rbp
    33be:	48 83 ec 20          	sub    $0x20,%rsp
    33c2:	48 89 7d f8          	mov    %rdi,-0x8(%rbp)
    33c6:	48 89 75 f0          	mov    %rsi,-0x10(%rbp)
    33ca:	48 89 55 e8          	mov    %rdx,-0x18(%rbp)
    33ce:	48 8b 45 e8          	mov    -0x18(%rbp),%rax
    33d2:	48 c1 e0 05          	shl    $0x5,%rax
    33d6:	48 89 c2             	mov    %rax,%rdx
    33d9:	48 8b 45 f0          	mov    -0x10(%rbp),%rax
    33dd:	48 89 d6             	mov    %rdx,%rsi
    33e0:	48 89 c7             	mov    %rax,%rdi
    33e3:	e8 d8 ee ff ff       	call   22c0 <_ZdlPvm@plt>
    33e8:	c9                   	leave  
    33e9:	c3                   	ret    

00000000000033ea <_ZNSt12_Destroy_auxILb0EE9__destroyIPNSt7__cxx1112basic_stringIcSt11char_traitsIcESaIcEEEEEvT_S9_>:
    33ea:	f3 0f 1e fa          	endbr64 
    33ee:	55                   	push   %rbp
    33ef:	48 89 e5             	mov    %rsp,%rbp
    33f2:	48 83 ec 10          	sub    $0x10,%rsp
    33f6:	48 89 7d f8          	mov    %rdi,-0x8(%rbp)
    33fa:	48 89 75 f0          	mov    %rsi,-0x10(%rbp)
    33fe:	eb 19                	jmp    3419 <_ZNSt12_Destroy_auxILb0EE9__destroyIPNSt7__cxx1112basic_stringIcSt11char_traitsIcESaIcEEEEEvT_S9_+0x2f>
    3400:	48 8b 45 f8          	mov    -0x8(%rbp),%rax
    3404:	48 89 c7             	mov    %rax,%rdi
    3407:	e8 17 f8 ff ff       	call   2c23 <_ZSt11__addressofINSt7__cxx1112basic_stringIcSt11char_traitsIcESaIcEEEEPT_RS6_>
    340c:	48 89 c7             	mov    %rax,%rdi
    340f:	e8 f1 00 00 00       	call   3505 <_ZSt8_DestroyINSt7__cxx1112basic_stringIcSt11char_traitsIcESaIcEEEEvPT_>
    3414:	48 83 45 f8 20       	addq   $0x20,-0x8(%rbp)
    3419:	48 8b 45 f8          	mov    -0x8(%rbp),%rax
    341d:	48 3b 45 f0          	cmp    -0x10(%rbp),%rax
    3421:	75 dd                	jne    3400 <_ZNSt12_Destroy_auxILb0EE9__destroyIPNSt7__cxx1112basic_stringIcSt11char_traitsIcESaIcEEEEEvT_S9_+0x16>
    3423:	90                   	nop
    3424:	90                   	nop
    3425:	c9                   	leave  
    3426:	c3                   	ret    
    3427:	90                   	nop

0000000000003428 <_ZNKSt6vectorINSt7__cxx1112basic_stringIcSt11char_traitsIcESaIcEEESaIS5_EE8max_sizeEv>:
    3428:	f3 0f 1e fa          	endbr64 
    342c:	55                   	push   %rbp
    342d:	48 89 e5             	mov    %rsp,%rbp
    3430:	48 83 ec 10          	sub    $0x10,%rsp
    3434:	48 89 7d f8          	mov    %rdi,-0x8(%rbp)
    3438:	48 8b 45 f8          	mov    -0x8(%rbp),%rax
    343c:	48 89 c7             	mov    %rax,%rdi
    343f:	e8 4a 01 00 00       	call   358e <_ZNKSt12_Vector_baseINSt7__cxx1112basic_stringIcSt11char_traitsIcESaIcEEESaIS5_EE19_M_get_Tp_allocatorEv>
    3444:	48 89 c7             	mov    %rax,%rdi
    3447:	e8 d8 00 00 00       	call   3524 <_ZNSt6vectorINSt7__cxx1112basic_stringIcSt11char_traitsIcESaIcEEESaIS5_EE11_S_max_sizeERKS6_>
    344c:	c9                   	leave  
    344d:	c3                   	ret    

000000000000344e <_ZSt3maxImERKT_S2_S2_>:
    344e:	f3 0f 1e fa          	endbr64 
    3452:	55                   	push   %rbp
    3453:	48 89 e5             	mov    %rsp,%rbp
    3456:	48 89 7d f8          	mov    %rdi,-0x8(%rbp)
    345a:	48 89 75 f0          	mov    %rsi,-0x10(%rbp)
    345e:	48 8b 45 f8          	mov    -0x8(%rbp),%rax
    3462:	48 8b 10             	mov    (%rax),%rdx
    3465:	48 8b 45 f0          	mov    -0x10(%rbp),%rax
    3469:	48 8b 00             	mov    (%rax),%rax
    346c:	48 39 c2             	cmp    %rax,%rdx
    346f:	73 06                	jae    3477 <_ZSt3maxImERKT_S2_S2_+0x29>
    3471:	48 8b 45 f0          	mov    -0x10(%rbp),%rax
    3475:	eb 04                	jmp    347b <_ZSt3maxImERKT_S2_S2_+0x2d>
    3477:	48 8b 45 f8          	mov    -0x8(%rbp),%rax
    347b:	5d                   	pop    %rbp
    347c:	c3                   	ret    

000000000000347d <_ZNSt16allocator_traitsISaINSt7__cxx1112basic_stringIcSt11char_traitsIcESaIcEEEEE8allocateERS6_m>:
    347d:	f3 0f 1e fa          	endbr64 
    3481:	55                   	push   %rbp
    3482:	48 89 e5             	mov    %rsp,%rbp
    3485:	48 83 ec 10          	sub    $0x10,%rsp
    3489:	48 89 7d f8          	mov    %rdi,-0x8(%rbp)
    348d:	48 89 75 f0          	mov    %rsi,-0x10(%rbp)
    3491:	48 8b 4d f0          	mov    -0x10(%rbp),%rcx
    3495:	48 8b 45 f8          	mov    -0x8(%rbp),%rax
    3499:	ba 00 00 00 00       	mov    $0x0,%edx
    349e:	48 89 ce             	mov    %rcx,%rsi
    34a1:	48 89 c7             	mov    %rax,%rdi
    34a4:	e8 0f 01 00 00       	call   35b8 <_ZN9__gnu_cxx13new_allocatorINSt7__cxx1112basic_stringIcSt11char_traitsIcESaIcEEEE8allocateEmPKv>
    34a9:	c9                   	leave  
    34aa:	c3                   	ret    

00000000000034ab <_ZNSt6vectorINSt7__cxx1112basic_stringIcSt11char_traitsIcESaIcEEESaIS5_EE14_S_do_relocateEPS5_S8_S8_RS6_St17integral_constantIbLb1EE>:
    34ab:	f3 0f 1e fa          	endbr64 
    34af:	55                   	push   %rbp
    34b0:	48 89 e5             	mov    %rsp,%rbp
    34b3:	48 83 ec 20          	sub    $0x20,%rsp
    34b7:	48 89 7d f8          	mov    %rdi,-0x8(%rbp)
    34bb:	48 89 75 f0          	mov    %rsi,-0x10(%rbp)
    34bf:	48 89 55 e8          	mov    %rdx,-0x18(%rbp)
    34c3:	48 89 4d e0          	mov    %rcx,-0x20(%rbp)
    34c7:	48 8b 4d e0          	mov    -0x20(%rbp),%rcx
    34cb:	48 8b 55 e8          	mov    -0x18(%rbp),%rdx
    34cf:	48 8b 75 f0          	mov    -0x10(%rbp),%rsi
    34d3:	48 8b 45 f8          	mov    -0x8(%rbp),%rax
    34d7:	48 89 c7             	mov    %rax,%rdi
    34da:	e8 3e 01 00 00       	call   361d <_ZSt12__relocate_aIPNSt7__cxx1112basic_stringIcSt11char_traitsIcESaIcEEES6_SaIS5_EET0_T_S9_S8_RT1_>
    34df:	c9                   	leave  
    34e0:	c3                   	ret    
    34e1:	90                   	nop

00000000000034e2 <_ZN9__gnu_cxx13new_allocatorINSt7__cxx1112basic_stringIcSt11char_traitsIcESaIcEEEE7destroyIS6_EEvPT_>:
    34e2:	f3 0f 1e fa          	endbr64 
    34e6:	55                   	push   %rbp
    34e7:	48 89 e5             	mov    %rsp,%rbp
    34ea:	48 83 ec 10          	sub    $0x10,%rsp
    34ee:	48 89 7d f8          	mov    %rdi,-0x8(%rbp)
    34f2:	48 89 75 f0          	mov    %rsi,-0x10(%rbp)
    34f6:	48 8b 45 f0          	mov    -0x10(%rbp),%rax
    34fa:	48 89 c7             	mov    %rax,%rdi
    34fd:	e8 5e ed ff ff       	call   2260 <_ZNSt7__cxx1112basic_stringIcSt11char_traitsIcESaIcEED1Ev@plt>
    3502:	90                   	nop
    3503:	c9                   	leave  
    3504:	c3                   	ret    

0000000000003505 <_ZSt8_DestroyINSt7__cxx1112basic_stringIcSt11char_traitsIcESaIcEEEEvPT_>:
    3505:	f3 0f 1e fa          	endbr64 
    3509:	55                   	push   %rbp
    350a:	48 89 e5             	mov    %rsp,%rbp
    350d:	48 83 ec 10          	sub    $0x10,%rsp
    3511:	48 89 7d f8          	mov    %rdi,-0x8(%rbp)
    3515:	48 8b 45 f8          	mov    -0x8(%rbp),%rax
    3519:	48 89 c7             	mov    %rax,%rdi
    351c:	e8 3f ed ff ff       	call   2260 <_ZNSt7__cxx1112basic_stringIcSt11char_traitsIcESaIcEED1Ev@plt>
    3521:	90                   	nop
    3522:	c9                   	leave  
    3523:	c3                   	ret    

0000000000003524 <_ZNSt6vectorINSt7__cxx1112basic_stringIcSt11char_traitsIcESaIcEEESaIS5_EE11_S_max_sizeERKS6_>:
    3524:	f3 0f 1e fa          	endbr64 
    3528:	55                   	push   %rbp
    3529:	48 89 e5             	mov    %rsp,%rbp
    352c:	48 83 ec 30          	sub    $0x30,%rsp
    3530:	48 89 7d d8          	mov    %rdi,-0x28(%rbp)
    3534:	64 48 8b 04 25 28 00 	mov    %fs:0x28,%rax
    353b:	00 00 
    353d:	48 89 45 f8          	mov    %rax,-0x8(%rbp)
    3541:	31 c0                	xor    %eax,%eax
    3543:	48 b8 ff ff ff ff ff 	movabs $0x3ffffffffffffff,%rax
    354a:	ff ff 03 
    354d:	48 89 45 e8          	mov    %rax,-0x18(%rbp)
    3551:	48 8b 45 d8          	mov    -0x28(%rbp),%rax
    3555:	48 89 c7             	mov    %rax,%rdi
    3558:	e8 27 01 00 00       	call   3684 <_ZNSt16allocator_traitsISaINSt7__cxx1112basic_stringIcSt11char_traitsIcESaIcEEEEE8max_sizeERKS6_>
    355d:	48 89 45 f0          	mov    %rax,-0x10(%rbp)
    3561:	48 8d 55 f0          	lea    -0x10(%rbp),%rdx
    3565:	48 8d 45 e8          	lea    -0x18(%rbp),%rax
    3569:	48 89 d6             	mov    %rdx,%rsi
    356c:	48 89 c7             	mov    %rax,%rdi
    356f:	e8 2e 01 00 00       	call   36a2 <_ZSt3minImERKT_S2_S2_>
    3574:	48 8b 00             	mov    (%rax),%rax
    3577:	48 8b 55 f8          	mov    -0x8(%rbp),%rdx
    357b:	64 48 2b 14 25 28 00 	sub    %fs:0x28,%rdx
    3582:	00 00 
    3584:	74 05                	je     358b <_ZNSt6vectorINSt7__cxx1112basic_stringIcSt11char_traitsIcESaIcEEESaIS5_EE11_S_max_sizeERKS6_+0x67>
    3586:	e8 55 ed ff ff       	call   22e0 <__stack_chk_fail@plt>
    358b:	c9                   	leave  
    358c:	c3                   	ret    
    358d:	90                   	nop

000000000000358e <_ZNKSt12_Vector_baseINSt7__cxx1112basic_stringIcSt11char_traitsIcESaIcEEESaIS5_EE19_M_get_Tp_allocatorEv>:
    358e:	f3 0f 1e fa          	endbr64 
    3592:	55                   	push   %rbp
    3593:	48 89 e5             	mov    %rsp,%rbp
    3596:	48 89 7d f8          	mov    %rdi,-0x8(%rbp)
    359a:	48 8b 45 f8          	mov    -0x8(%rbp),%rax
    359e:	5d                   	pop    %rbp
    359f:	c3                   	ret    

00000000000035a0 <_ZNK9__gnu_cxx13new_allocatorINSt7__cxx1112basic_stringIcSt11char_traitsIcESaIcEEEE11_M_max_sizeEv>:
    35a0:	f3 0f 1e fa          	endbr64 
    35a4:	55                   	push   %rbp
    35a5:	48 89 e5             	mov    %rsp,%rbp
    35a8:	48 89 7d f8          	mov    %rdi,-0x8(%rbp)
    35ac:	48 b8 ff ff ff ff ff 	movabs $0x3ffffffffffffff,%rax
    35b3:	ff ff 03 
    35b6:	5d                   	pop    %rbp
    35b7:	c3                   	ret    

00000000000035b8 <_ZN9__gnu_cxx13new_allocatorINSt7__cxx1112basic_stringIcSt11char_traitsIcESaIcEEEE8allocateEmPKv>:
    35b8:	f3 0f 1e fa          	endbr64 
    35bc:	55                   	push   %rbp
    35bd:	48 89 e5             	mov    %rsp,%rbp
    35c0:	48 83 ec 20          	sub    $0x20,%rsp
    35c4:	48 89 7d f8          	mov    %rdi,-0x8(%rbp)
    35c8:	48 89 75 f0          	mov    %rsi,-0x10(%rbp)
    35cc:	48 89 55 e8          	mov    %rdx,-0x18(%rbp)
    35d0:	48 8b 45 f8          	mov    -0x8(%rbp),%rax
    35d4:	48 89 c7             	mov    %rax,%rdi
    35d7:	e8 c4 ff ff ff       	call   35a0 <_ZNK9__gnu_cxx13new_allocatorINSt7__cxx1112basic_stringIcSt11char_traitsIcESaIcEEEE11_M_max_sizeEv>
    35dc:	48 39 45 f0          	cmp    %rax,-0x10(%rbp)
    35e0:	0f 97 c0             	seta   %al
    35e3:	0f b6 c0             	movzbl %al,%eax
    35e6:	48 85 c0             	test   %rax,%rax
    35e9:	0f 95 c0             	setne  %al
    35ec:	84 c0                	test   %al,%al
    35ee:	74 1a                	je     360a <_ZN9__gnu_cxx13new_allocatorINSt7__cxx1112basic_stringIcSt11char_traitsIcESaIcEEEE8allocateEmPKv+0x52>
    35f0:	48 b8 ff ff ff ff ff 	movabs $0x7ffffffffffffff,%rax
    35f7:	ff ff 07 
    35fa:	48 39 45 f0          	cmp    %rax,-0x10(%rbp)
    35fe:	76 05                	jbe    3605 <_ZN9__gnu_cxx13new_allocatorINSt7__cxx1112basic_stringIcSt11char_traitsIcESaIcEEEE8allocateEmPKv+0x4d>
    3600:	e8 7b ec ff ff       	call   2280 <_ZSt28__throw_bad_array_new_lengthv@plt>
    3605:	e8 06 ec ff ff       	call   2210 <_ZSt17__throw_bad_allocv@plt>
    360a:	48 8b 45 f0          	mov    -0x10(%rbp),%rax
    360e:	48 c1 e0 05          	shl    $0x5,%rax
    3612:	48 89 c7             	mov    %rax,%rdi
    3615:	e8 96 ec ff ff       	call   22b0 <_Znwm@plt>
    361a:	90                   	nop
    361b:	c9                   	leave  
    361c:	c3                   	ret    

000000000000361d <_ZSt12__relocate_aIPNSt7__cxx1112basic_stringIcSt11char_traitsIcESaIcEEES6_SaIS5_EET0_T_S9_S8_RT1_>:
    361d:	f3 0f 1e fa          	endbr64 
    3621:	55                   	push   %rbp
    3622:	48 89 e5             	mov    %rsp,%rbp
    3625:	41 54                	push   %r12
    3627:	53                   	push   %rbx
    3628:	48 83 ec 20          	sub    $0x20,%rsp
    362c:	48 89 7d e8          	mov    %rdi,-0x18(%rbp)
    3630:	48 89 75 e0          	mov    %rsi,-0x20(%rbp)
    3634:	48 89 55 d8          	mov    %rdx,-0x28(%rbp)
    3638:	48 89 4d d0          	mov    %rcx,-0x30(%rbp)
    363c:	48 8b 45 d8          	mov    -0x28(%rbp),%rax
    3640:	48 89 c7             	mov    %rax,%rdi
    3643:	e8 89 00 00 00       	call   36d1 <_ZSt12__niter_baseIPNSt7__cxx1112basic_stringIcSt11char_traitsIcESaIcEEEET_S7_>
    3648:	49 89 c4             	mov    %rax,%r12
    364b:	48 8b 45 e0          	mov    -0x20(%rbp),%rax
    364f:	48 89 c7             	mov    %rax,%rdi
    3652:	e8 7a 00 00 00       	call   36d1 <_ZSt12__niter_baseIPNSt7__cxx1112basic_stringIcSt11char_traitsIcESaIcEEEET_S7_>
    3657:	48 89 c3             	mov    %rax,%rbx
    365a:	48 8b 45 e8          	mov    -0x18(%rbp),%rax
    365e:	48 89 c7             	mov    %rax,%rdi
    3661:	e8 6b 00 00 00       	call   36d1 <_ZSt12__niter_baseIPNSt7__cxx1112basic_stringIcSt11char_traitsIcESaIcEEEET_S7_>
    3666:	48 89 c7             	mov    %rax,%rdi
    3669:	48 8b 45 d0          	mov    -0x30(%rbp),%rax
    366d:	48 89 c1             	mov    %rax,%rcx
    3670:	4c 89 e2             	mov    %r12,%rdx
    3673:	48 89 de             	mov    %rbx,%rsi
    3676:	e8 68 00 00 00       	call   36e3 <_ZSt14__relocate_a_1IPNSt7__cxx1112basic_stringIcSt11char_traitsIcESaIcEEES6_SaIS5_EET0_T_S9_S8_RT1_>
    367b:	48 83 c4 20          	add    $0x20,%rsp
    367f:	5b                   	pop    %rbx
    3680:	41 5c                	pop    %r12
    3682:	5d                   	pop    %rbp
    3683:	c3                   	ret    

0000000000003684 <_ZNSt16allocator_traitsISaINSt7__cxx1112basic_stringIcSt11char_traitsIcESaIcEEEEE8max_sizeERKS6_>:
    3684:	f3 0f 1e fa          	endbr64 
    3688:	55                   	push   %rbp
    3689:	48 89 e5             	mov    %rsp,%rbp
    368c:	48 83 ec 10          	sub    $0x10,%rsp
    3690:	48 89 7d f8          	mov    %rdi,-0x8(%rbp)
    3694:	48 8b 45 f8          	mov    -0x8(%rbp),%rax
    3698:	48 89 c7             	mov    %rax,%rdi
    369b:	e8 b8 00 00 00       	call   3758 <_ZNK9__gnu_cxx13new_allocatorINSt7__cxx1112basic_stringIcSt11char_traitsIcESaIcEEEE8max_sizeEv>
    36a0:	c9                   	leave  
    36a1:	c3                   	ret    

00000000000036a2 <_ZSt3minImERKT_S2_S2_>:
    36a2:	f3 0f 1e fa          	endbr64 
    36a6:	55                   	push   %rbp
    36a7:	48 89 e5             	mov    %rsp,%rbp
    36aa:	48 89 7d f8          	mov    %rdi,-0x8(%rbp)
    36ae:	48 89 75 f0          	mov    %rsi,-0x10(%rbp)
    36b2:	48 8b 45 f0          	mov    -0x10(%rbp),%rax
    36b6:	48 8b 10             	mov    (%rax),%rdx
    36b9:	48 8b 45 f8          	mov    -0x8(%rbp),%rax
    36bd:	48 8b 00             	mov    (%rax),%rax
    36c0:	48 39 c2             	cmp    %rax,%rdx
    36c3:	73 06                	jae    36cb <_ZSt3minImERKT_S2_S2_+0x29>
    36c5:	48 8b 45 f0          	mov    -0x10(%rbp),%rax
    36c9:	eb 04                	jmp    36cf <_ZSt3minImERKT_S2_S2_+0x2d>
    36cb:	48 8b 45 f8          	mov    -0x8(%rbp),%rax
    36cf:	5d                   	pop    %rbp
    36d0:	c3                   	ret    

00000000000036d1 <_ZSt12__niter_baseIPNSt7__cxx1112basic_stringIcSt11char_traitsIcESaIcEEEET_S7_>:
    36d1:	f3 0f 1e fa          	endbr64 
    36d5:	55                   	push   %rbp
    36d6:	48 89 e5             	mov    %rsp,%rbp
    36d9:	48 89 7d f8          	mov    %rdi,-0x8(%rbp)
    36dd:	48 8b 45 f8          	mov    -0x8(%rbp),%rax
    36e1:	5d                   	pop    %rbp
    36e2:	c3                   	ret    

00000000000036e3 <_ZSt14__relocate_a_1IPNSt7__cxx1112basic_stringIcSt11char_traitsIcESaIcEEES6_SaIS5_EET0_T_S9_S8_RT1_>:
    36e3:	f3 0f 1e fa          	endbr64 
    36e7:	55                   	push   %rbp
    36e8:	48 89 e5             	mov    %rsp,%rbp
    36eb:	53                   	push   %rbx
    36ec:	48 83 ec 38          	sub    $0x38,%rsp
    36f0:	48 89 7d d8          	mov    %rdi,-0x28(%rbp)
    36f4:	48 89 75 d0          	mov    %rsi,-0x30(%rbp)
    36f8:	48 89 55 c8          	mov    %rdx,-0x38(%rbp)
    36fc:	48 89 4d c0          	mov    %rcx,-0x40(%rbp)
    3700:	48 8b 45 c8          	mov    -0x38(%rbp),%rax
    3704:	48 89 45 e8          	mov    %rax,-0x18(%rbp)
    3708:	eb 3a                	jmp    3744 <_ZSt14__relocate_a_1IPNSt7__cxx1112basic_stringIcSt11char_traitsIcESaIcEEES6_SaIS5_EET0_T_S9_S8_RT1_+0x61>
    370a:	48 8b 45 d8          	mov    -0x28(%rbp),%rax
    370e:	48 89 c7             	mov    %rax,%rdi
    3711:	e8 0d f5 ff ff       	call   2c23 <_ZSt11__addressofINSt7__cxx1112basic_stringIcSt11char_traitsIcESaIcEEEEPT_RS6_>
    3716:	48 89 c3             	mov    %rax,%rbx
    3719:	48 8b 45 e8          	mov    -0x18(%rbp),%rax
    371d:	48 89 c7             	mov    %rax,%rdi
    3720:	e8 fe f4 ff ff       	call   2c23 <_ZSt11__addressofINSt7__cxx1112basic_stringIcSt11char_traitsIcESaIcEEEEPT_RS6_>
    3725:	48 89 c1             	mov    %rax,%rcx
    3728:	48 8b 45 c0          	mov    -0x40(%rbp),%rax
    372c:	48 89 c2             	mov    %rax,%rdx
    372f:	48 89 de             	mov    %rbx,%rsi
    3732:	48 89 cf             	mov    %rcx,%rdi
    3735:	e8 3c 00 00 00       	call   3776 <_ZSt19__relocate_object_aINSt7__cxx1112basic_stringIcSt11char_traitsIcESaIcEEES5_SaIS5_EEvPT_PT0_RT1_>
    373a:	48 83 45 d8 20       	addq   $0x20,-0x28(%rbp)
    373f:	48 83 45 e8 20       	addq   $0x20,-0x18(%rbp)
    3744:	48 8b 45 d8          	mov    -0x28(%rbp),%rax
    3748:	48 3b 45 d0          	cmp    -0x30(%rbp),%rax
    374c:	75 bc                	jne    370a <_ZSt14__relocate_a_1IPNSt7__cxx1112basic_stringIcSt11char_traitsIcESaIcEEES6_SaIS5_EET0_T_S9_S8_RT1_+0x27>
    374e:	48 8b 45 e8          	mov    -0x18(%rbp),%rax
    3752:	48 8b 5d f8          	mov    -0x8(%rbp),%rbx
    3756:	c9                   	leave  
    3757:	c3                   	ret    

0000000000003758 <_ZNK9__gnu_cxx13new_allocatorINSt7__cxx1112basic_stringIcSt11char_traitsIcESaIcEEEE8max_sizeEv>:
    3758:	f3 0f 1e fa          	endbr64 
    375c:	55                   	push   %rbp
    375d:	48 89 e5             	mov    %rsp,%rbp
    3760:	48 83 ec 10          	sub    $0x10,%rsp
    3764:	48 89 7d f8          	mov    %rdi,-0x8(%rbp)
    3768:	48 8b 45 f8          	mov    -0x8(%rbp),%rax
    376c:	48 89 c7             	mov    %rax,%rdi
    376f:	e8 2c fe ff ff       	call   35a0 <_ZNK9__gnu_cxx13new_allocatorINSt7__cxx1112basic_stringIcSt11char_traitsIcESaIcEEEE11_M_max_sizeEv>
    3774:	c9                   	leave  
    3775:	c3                   	ret    

0000000000003776 <_ZSt19__relocate_object_aINSt7__cxx1112basic_stringIcSt11char_traitsIcESaIcEEES5_SaIS5_EEvPT_PT0_RT1_>:
    3776:	f3 0f 1e fa          	endbr64 
    377a:	55                   	push   %rbp
    377b:	48 89 e5             	mov    %rsp,%rbp
    377e:	48 83 ec 20          	sub    $0x20,%rsp
    3782:	48 89 7d f8          	mov    %rdi,-0x8(%rbp)
    3786:	48 89 75 f0          	mov    %rsi,-0x10(%rbp)
    378a:	48 89 55 e8          	mov    %rdx,-0x18(%rbp)
    378e:	48 8b 45 f0          	mov    -0x10(%rbp),%rax
    3792:	48 89 c7             	mov    %rax,%rdi
    3795:	e8 b1 f5 ff ff       	call   2d4b <_ZSt4moveIRNSt7__cxx1112basic_stringIcSt11char_traitsIcESaIcEEEEONSt16remove_referenceIT_E4typeEOS8_>
    379a:	48 89 c2             	mov    %rax,%rdx
    379d:	48 8b 4d f8          	mov    -0x8(%rbp),%rcx
    37a1:	48 8b 45 e8          	mov    -0x18(%rbp),%rax
    37a5:	48 89 ce             	mov    %rcx,%rsi
    37a8:	48 89 c7             	mov    %rax,%rdi
    37ab:	e8 21 00 00 00       	call   37d1 <_ZNSt16allocator_traitsISaINSt7__cxx1112basic_stringIcSt11char_traitsIcESaIcEEEEE9constructIS5_JS5_EEEvRS6_PT_DpOT0_>
    37b0:	48 8b 45 f0          	mov    -0x10(%rbp),%rax
    37b4:	48 89 c7             	mov    %rax,%rdi
    37b7:	e8 67 f4 ff ff       	call   2c23 <_ZSt11__addressofINSt7__cxx1112basic_stringIcSt11char_traitsIcESaIcEEEEPT_RS6_>
    37bc:	48 89 c2             	mov    %rax,%rdx
    37bf:	48 8b 45 e8          	mov    -0x18(%rbp),%rax
    37c3:	48 89 d6             	mov    %rdx,%rsi
    37c6:	48 89 c7             	mov    %rax,%rdi
    37c9:	e8 bd fb ff ff       	call   338b <_ZNSt16allocator_traitsISaINSt7__cxx1112basic_stringIcSt11char_traitsIcESaIcEEEEE7destroyIS5_EEvRS6_PT_>
    37ce:	90                   	nop
    37cf:	c9                   	leave  
    37d0:	c3                   	ret    

00000000000037d1 <_ZNSt16allocator_traitsISaINSt7__cxx1112basic_stringIcSt11char_traitsIcESaIcEEEEE9constructIS5_JS5_EEEvRS6_PT_DpOT0_>:
    37d1:	f3 0f 1e fa          	endbr64 
    37d5:	55                   	push   %rbp
    37d6:	48 89 e5             	mov    %rsp,%rbp
    37d9:	48 83 ec 20          	sub    $0x20,%rsp
    37dd:	48 89 7d f8          	mov    %rdi,-0x8(%rbp)
    37e1:	48 89 75 f0          	mov    %rsi,-0x10(%rbp)
    37e5:	48 89 55 e8          	mov    %rdx,-0x18(%rbp)
    37e9:	48 8b 45 e8          	mov    -0x18(%rbp),%rax
    37ed:	48 89 c7             	mov    %rax,%rdi
    37f0:	e8 19 00 00 00       	call   380e <_ZSt7forwardINSt7__cxx1112basic_stringIcSt11char_traitsIcESaIcEEEEOT_RNSt16remove_referenceIS6_E4typeE>
    37f5:	48 89 c2             	mov    %rax,%rdx
    37f8:	48 8b 4d f0          	mov    -0x10(%rbp),%rcx
    37fc:	48 8b 45 f8          	mov    -0x8(%rbp),%rax
    3800:	48 89 ce             	mov    %rcx,%rsi
    3803:	48 89 c7             	mov    %rax,%rdi
    3806:	e8 15 00 00 00       	call   3820 <_ZN9__gnu_cxx13new_allocatorINSt7__cxx1112basic_stringIcSt11char_traitsIcESaIcEEEE9constructIS6_JS6_EEEvPT_DpOT0_>
    380b:	90                   	nop
    380c:	c9                   	leave  
    380d:	c3                   	ret    

000000000000380e <_ZSt7forwardINSt7__cxx1112basic_stringIcSt11char_traitsIcESaIcEEEEOT_RNSt16remove_referenceIS6_E4typeE>:
    380e:	f3 0f 1e fa          	endbr64 
    3812:	55                   	push   %rbp
    3813:	48 89 e5             	mov    %rsp,%rbp
    3816:	48 89 7d f8          	mov    %rdi,-0x8(%rbp)
    381a:	48 8b 45 f8          	mov    -0x8(%rbp),%rax
    381e:	5d                   	pop    %rbp
    381f:	c3                   	ret    

0000000000003820 <_ZN9__gnu_cxx13new_allocatorINSt7__cxx1112basic_stringIcSt11char_traitsIcESaIcEEEE9constructIS6_JS6_EEEvPT_DpOT0_>:
    3820:	f3 0f 1e fa          	endbr64 
    3824:	55                   	push   %rbp
    3825:	48 89 e5             	mov    %rsp,%rbp
    3828:	53                   	push   %rbx
    3829:	48 83 ec 28          	sub    $0x28,%rsp
    382d:	48 89 7d e8          	mov    %rdi,-0x18(%rbp)
    3831:	48 89 75 e0          	mov    %rsi,-0x20(%rbp)
    3835:	48 89 55 d8          	mov    %rdx,-0x28(%rbp)
    3839:	48 8b 45 d8          	mov    -0x28(%rbp),%rax
    383d:	48 89 c7             	mov    %rax,%rdi
    3840:	e8 c9 ff ff ff       	call   380e <_ZSt7forwardINSt7__cxx1112basic_stringIcSt11char_traitsIcESaIcEEEEOT_RNSt16remove_referenceIS6_E4typeE>
    3845:	48 89 c3             	mov    %rax,%rbx
    3848:	48 8b 45 e0          	mov    -0x20(%rbp),%rax
    384c:	48 89 c6             	mov    %rax,%rsi
    384f:	bf 20 00 00 00       	mov    $0x20,%edi
    3854:	e8 c5 f0 ff ff       	call   291e <_ZnwmPv>
    3859:	48 89 de             	mov    %rbx,%rsi
    385c:	48 89 c7             	mov    %rax,%rdi
    385f:	e8 ec e9 ff ff       	call   2250 <_ZNSt7__cxx1112basic_stringIcSt11char_traitsIcESaIcEEC1EOS4_@plt>
    3864:	90                   	nop
    3865:	48 8b 5d f8          	mov    -0x8(%rbp),%rbx
    3869:	c9                   	leave  
    386a:	c3                   	ret    

Disassembly of section .fini:

000000000000386c <_fini>:
    386c:	f3 0f 1e fa          	endbr64 
    3870:	48 83 ec 08          	sub    $0x8,%rsp
    3874:	48 83 c4 08          	add    $0x8,%rsp
    3878:	c3                   	ret    
